ARM GAS  C:\Users\du4\AppData\Local\Temp\ccHP9nuU.s 			page 1


   1              		.cpu cortex-m4
   2              		.eabi_attribute 27, 1
   3              		.eabi_attribute 28, 1
   4              		.eabi_attribute 20, 1
   5              		.eabi_attribute 21, 1
   6              		.eabi_attribute 23, 3
   7              		.eabi_attribute 24, 1
   8              		.eabi_attribute 25, 1
   9              		.eabi_attribute 26, 1
  10              		.eabi_attribute 30, 1
  11              		.eabi_attribute 34, 1
  12              		.eabi_attribute 18, 4
  13              		.file	"main.c"
  14              		.text
  15              	.Ltext0:
  16              		.cfi_sections	.debug_frame
  17              		.section	.text.Error_Handler,"ax",%progbits
  18              		.align	1
  19              		.global	Error_Handler
  20              		.arch armv7e-m
  21              		.syntax unified
  22              		.thumb
  23              		.thumb_func
  24              		.fpu fpv4-sp-d16
  26              	Error_Handler:
  27              	.LFB240:
  28              		.file 1 "Core/Src/main.c"
   1:Core/Src/main.c **** /* USER CODE BEGIN Header */
   2:Core/Src/main.c **** /**
   3:Core/Src/main.c ****   ******************************************************************************
   4:Core/Src/main.c ****   * @file           : main.c
   5:Core/Src/main.c ****   * @brief          : Main program body
   6:Core/Src/main.c ****   ******************************************************************************
   7:Core/Src/main.c ****   * @attention
   8:Core/Src/main.c ****   *
   9:Core/Src/main.c ****   * <h2><center>&copy; Copyright (c) 2021 STMicroelectronics.
  10:Core/Src/main.c ****   * All rights reserved.</center></h2>
  11:Core/Src/main.c ****   *
  12:Core/Src/main.c ****   * This software component is licensed by ST under BSD 3-Clause license,
  13:Core/Src/main.c ****   * the "License"; You may not use this file except in compliance with the
  14:Core/Src/main.c ****   * License. You may obtain a copy of the License at:
  15:Core/Src/main.c ****   *                        opensource.org/licenses/BSD-3-Clause
  16:Core/Src/main.c ****   *
  17:Core/Src/main.c ****   ******************************************************************************
  18:Core/Src/main.c ****   */
  19:Core/Src/main.c **** /* USER CODE END Header */
  20:Core/Src/main.c **** /* Includes ------------------------------------------------------------------*/
  21:Core/Src/main.c **** #include "main.h"
  22:Core/Src/main.c **** #include "adc.h"
  23:Core/Src/main.c **** #include "spi.h"
  24:Core/Src/main.c **** #include "tim.h"
  25:Core/Src/main.c **** #include "usart.h"
  26:Core/Src/main.c **** #include "gpio.h"
  27:Core/Src/main.c **** 
  28:Core/Src/main.c **** /* Private includes ----------------------------------------------------------*/
  29:Core/Src/main.c **** /* USER CODE BEGIN Includes */
  30:Core/Src/main.c **** #include "mb.h"
ARM GAS  C:\Users\du4\AppData\Local\Temp\ccHP9nuU.s 			page 2


  31:Core/Src/main.c **** #include "mbport.h"
  32:Core/Src/main.c **** #include "user_mb_app.h"
  33:Core/Src/main.c **** #include "ReceiveTransmit.h"
  34:Core/Src/main.c **** 
  35:Core/Src/main.c **** #include "st7735.h"
  36:Core/Src/main.c **** #include "fonts.h"
  37:Core/Src/main.c **** #include "img.h"
  38:Core/Src/main.c **** 
  39:Core/Src/main.c **** /* USER CODE END Includes */
  40:Core/Src/main.c **** 
  41:Core/Src/main.c **** /* Private typedef -----------------------------------------------------------*/
  42:Core/Src/main.c **** /* USER CODE BEGIN PTD */
  43:Core/Src/main.c **** 
  44:Core/Src/main.c **** /* USER CODE END PTD */
  45:Core/Src/main.c **** 
  46:Core/Src/main.c **** /* Private define ------------------------------------------------------------*/
  47:Core/Src/main.c **** /* USER CODE BEGIN PD */
  48:Core/Src/main.c **** /* USER CODE END PD */
  49:Core/Src/main.c **** 
  50:Core/Src/main.c **** /* Private macro -------------------------------------------------------------*/
  51:Core/Src/main.c **** /* USER CODE BEGIN PM */
  52:Core/Src/main.c **** 
  53:Core/Src/main.c **** /* USER CODE END PM */
  54:Core/Src/main.c **** 
  55:Core/Src/main.c **** /* Private variables ---------------------------------------------------------*/
  56:Core/Src/main.c **** 
  57:Core/Src/main.c **** /* USER CODE BEGIN PV */
  58:Core/Src/main.c **** 
  59:Core/Src/main.c **** /* USER CODE END PV */
  60:Core/Src/main.c **** 
  61:Core/Src/main.c **** /* Private function prototypes -----------------------------------------------*/
  62:Core/Src/main.c **** void SystemClock_Config(void);
  63:Core/Src/main.c **** /* USER CODE BEGIN PFP */
  64:Core/Src/main.c **** 
  65:Core/Src/main.c **** /* USER CODE END PFP */
  66:Core/Src/main.c **** 
  67:Core/Src/main.c **** /* Private user code ---------------------------------------------------------*/
  68:Core/Src/main.c **** /* USER CODE BEGIN 0 */
  69:Core/Src/main.c **** 
  70:Core/Src/main.c **** /* USER CODE END 0 */
  71:Core/Src/main.c **** 
  72:Core/Src/main.c **** /**
  73:Core/Src/main.c ****   * @brief  The application entry point.
  74:Core/Src/main.c ****   * @retval int
  75:Core/Src/main.c ****   */
  76:Core/Src/main.c **** int main(void)
  77:Core/Src/main.c **** {
  78:Core/Src/main.c ****   /* USER CODE BEGIN 1 */
  79:Core/Src/main.c **** 
  80:Core/Src/main.c ****   /* USER CODE END 1 */
  81:Core/Src/main.c **** 
  82:Core/Src/main.c ****   /* MCU Configuration--------------------------------------------------------*/
  83:Core/Src/main.c **** 
  84:Core/Src/main.c ****   /* Reset of all peripherals, Initializes the Flash interface and the Systick. */
  85:Core/Src/main.c ****   HAL_Init();
  86:Core/Src/main.c **** 
  87:Core/Src/main.c ****   /* USER CODE BEGIN Init */
ARM GAS  C:\Users\du4\AppData\Local\Temp\ccHP9nuU.s 			page 3


  88:Core/Src/main.c **** 
  89:Core/Src/main.c ****   /* USER CODE END Init */
  90:Core/Src/main.c **** 
  91:Core/Src/main.c ****   /* Configure the system clock */
  92:Core/Src/main.c ****   SystemClock_Config();
  93:Core/Src/main.c **** 
  94:Core/Src/main.c ****   /* USER CODE BEGIN SysInit */
  95:Core/Src/main.c **** 
  96:Core/Src/main.c ****   /* USER CODE END SysInit */
  97:Core/Src/main.c **** 
  98:Core/Src/main.c ****   /* Initialize all configured peripherals */
  99:Core/Src/main.c ****   MX_GPIO_Init();
 100:Core/Src/main.c ****   MX_ADC1_Init();
 101:Core/Src/main.c ****   MX_ADC2_Init();
 102:Core/Src/main.c ****   MX_SPI1_Init();
 103:Core/Src/main.c ****   MX_SPI2_Init();
 104:Core/Src/main.c ****   MX_TIM2_Init();
 105:Core/Src/main.c ****   MX_TIM3_Init();
 106:Core/Src/main.c ****   MX_TIM4_Init();
 107:Core/Src/main.c ****   MX_USART2_UART_Init();
 108:Core/Src/main.c ****   /* USER CODE BEGIN 2 */
 109:Core/Src/main.c ****   eMBInit(MB_RTU, 1, &huart2, 115200, &htim4);
 110:Core/Src/main.c **** 	eMBEnable();
 111:Core/Src/main.c **** 
 112:Core/Src/main.c ****   ST7735_Init();
 113:Core/Src/main.c ****   ST7735_FillScreen(ST7735_BLACK);
 114:Core/Src/main.c ****   
 115:Core/Src/main.c ****   HAL_TIM_Base_Start_IT(&htim2);
 116:Core/Src/main.c ****   HAL_TIM_Base_Start_IT(&htim3);
 117:Core/Src/main.c **** 
 118:Core/Src/main.c ****   HAL_GPIO_WritePin(GPIOE,VCC_Pin,GPIO_PIN_SET);
 119:Core/Src/main.c ****   HAL_GPIO_WritePin(GPIOE,GND_Pin,GPIO_PIN_SET);
 120:Core/Src/main.c ****   
 121:Core/Src/main.c ****   /* USER CODE END 2 */
 122:Core/Src/main.c **** 
 123:Core/Src/main.c ****   /* Infinite loop */
 124:Core/Src/main.c ****   /* USER CODE BEGIN WHILE */
 125:Core/Src/main.c ****   while (1)
 126:Core/Src/main.c ****   {  
 127:Core/Src/main.c ****     // ST7735_EmptyRectangle(0, 80, 10, 10, ST7735_WHITE);
 128:Core/Src/main.c **** 
 129:Core/Src/main.c ****     ST7735_Sinus(0,90,25, 64, 128);
 130:Core/Src/main.c ****     // uint16_t *idBase0 = (uint16_t*)(UID_BASE);
 131:Core/Src/main.c ****     // uint16_t *idBase1 = (uint16_t*)(UID_BASE + 0x02);
 132:Core/Src/main.c ****     // uint32_t *idBase2 = (uint32_t*)(UID_BASE + 0x04);
 133:Core/Src/main.c ****     // uint32_t *idBase3 = (uint32_t*)(UID_BASE + 0x08);
 134:Core/Src/main.c **** 
 135:Core/Src/main.c ****     // char buffer[64] = {0,};
 136:Core/Src/main.c ****     // sprintf(buffer, "UID %x-%x-%lx-%lx", *idBase0, *idBase1, *idBase2, *idBase3);
 137:Core/Src/main.c ****     // ST7735_WriteString(0, 100, (char*) buffer, Font_7x10, ST7735_WHITE, ST7735_BLACK); 
 138:Core/Src/main.c **** 
 139:Core/Src/main.c **** 
 140:Core/Src/main.c ****   // #ifdef ST7735_IS_128X128
 141:Core/Src/main.c **** 	//     // Display test image 128x128
 142:Core/Src/main.c **** 	//     ST7735_DrawImage(0, 100, 20, 20, (uint16_t*)img);
 143:Core/Src/main.c ****   //     HAL_Delay(15000);
 144:Core/Src/main.c **** 	// #endif // ST7735_SS_128X128
ARM GAS  C:\Users\du4\AppData\Local\Temp\ccHP9nuU.s 			page 4


 145:Core/Src/main.c **** 
 146:Core/Src/main.c ****     HAL_Delay(20);
 147:Core/Src/main.c ****     eMBPoll();
 148:Core/Src/main.c ****     /* USER CODE END WHILE */
 149:Core/Src/main.c **** 
 150:Core/Src/main.c ****     /* USER CODE BEGIN 3 */
 151:Core/Src/main.c ****   }
 152:Core/Src/main.c ****   /* USER CODE END 3 */
 153:Core/Src/main.c **** }
 154:Core/Src/main.c **** 
 155:Core/Src/main.c **** /**
 156:Core/Src/main.c ****   * @brief System Clock Configuration
 157:Core/Src/main.c ****   * @retval None
 158:Core/Src/main.c ****   */
 159:Core/Src/main.c **** void SystemClock_Config(void)
 160:Core/Src/main.c **** {
 161:Core/Src/main.c ****   RCC_OscInitTypeDef RCC_OscInitStruct = {0};
 162:Core/Src/main.c ****   RCC_ClkInitTypeDef RCC_ClkInitStruct = {0};
 163:Core/Src/main.c **** 
 164:Core/Src/main.c ****   /** Configure the main internal regulator output voltage
 165:Core/Src/main.c ****   */
 166:Core/Src/main.c ****   __HAL_RCC_PWR_CLK_ENABLE();
 167:Core/Src/main.c ****   __HAL_PWR_VOLTAGESCALING_CONFIG(PWR_REGULATOR_VOLTAGE_SCALE1);
 168:Core/Src/main.c ****   /** Initializes the RCC Oscillators according to the specified parameters
 169:Core/Src/main.c ****   * in the RCC_OscInitTypeDef structure.
 170:Core/Src/main.c ****   */
 171:Core/Src/main.c ****   RCC_OscInitStruct.OscillatorType = RCC_OSCILLATORTYPE_HSE;
 172:Core/Src/main.c ****   RCC_OscInitStruct.HSEState = RCC_HSE_ON;
 173:Core/Src/main.c ****   RCC_OscInitStruct.PLL.PLLState = RCC_PLL_ON;
 174:Core/Src/main.c ****   RCC_OscInitStruct.PLL.PLLSource = RCC_PLLSOURCE_HSE;
 175:Core/Src/main.c ****   RCC_OscInitStruct.PLL.PLLM = 8;
 176:Core/Src/main.c ****   RCC_OscInitStruct.PLL.PLLN = 192;
 177:Core/Src/main.c ****   RCC_OscInitStruct.PLL.PLLP = RCC_PLLP_DIV4;
 178:Core/Src/main.c ****   RCC_OscInitStruct.PLL.PLLQ = 4;
 179:Core/Src/main.c ****   if (HAL_RCC_OscConfig(&RCC_OscInitStruct) != HAL_OK)
 180:Core/Src/main.c ****   {
 181:Core/Src/main.c ****     Error_Handler();
 182:Core/Src/main.c ****   }
 183:Core/Src/main.c ****   /** Initializes the CPU, AHB and APB buses clocks
 184:Core/Src/main.c ****   */
 185:Core/Src/main.c ****   RCC_ClkInitStruct.ClockType = RCC_CLOCKTYPE_HCLK|RCC_CLOCKTYPE_SYSCLK
 186:Core/Src/main.c ****                               |RCC_CLOCKTYPE_PCLK1|RCC_CLOCKTYPE_PCLK2;
 187:Core/Src/main.c ****   RCC_ClkInitStruct.SYSCLKSource = RCC_SYSCLKSOURCE_PLLCLK;
 188:Core/Src/main.c ****   RCC_ClkInitStruct.AHBCLKDivider = RCC_SYSCLK_DIV2;
 189:Core/Src/main.c ****   RCC_ClkInitStruct.APB1CLKDivider = RCC_HCLK_DIV1;
 190:Core/Src/main.c ****   RCC_ClkInitStruct.APB2CLKDivider = RCC_HCLK_DIV1;
 191:Core/Src/main.c **** 
 192:Core/Src/main.c ****   if (HAL_RCC_ClockConfig(&RCC_ClkInitStruct, FLASH_LATENCY_0) != HAL_OK)
 193:Core/Src/main.c ****   {
 194:Core/Src/main.c ****     Error_Handler();
 195:Core/Src/main.c ****   }
 196:Core/Src/main.c **** }
 197:Core/Src/main.c **** 
 198:Core/Src/main.c **** /* USER CODE BEGIN 4 */
 199:Core/Src/main.c **** 
 200:Core/Src/main.c **** /* USER CODE END 4 */
 201:Core/Src/main.c **** 
ARM GAS  C:\Users\du4\AppData\Local\Temp\ccHP9nuU.s 			page 5


 202:Core/Src/main.c **** /**
 203:Core/Src/main.c ****   * @brief  This function is executed in case of error occurrence.
 204:Core/Src/main.c ****   * @retval None
 205:Core/Src/main.c ****   */
 206:Core/Src/main.c **** void Error_Handler(void)
 207:Core/Src/main.c **** {
  29              		.loc 1 207 1 view -0
  30              		.cfi_startproc
  31              		@ Volatile: function does not return.
  32              		@ args = 0, pretend = 0, frame = 0
  33              		@ frame_needed = 0, uses_anonymous_args = 0
  34              		@ link register save eliminated.
 208:Core/Src/main.c ****   /* USER CODE BEGIN Error_Handler_Debug */
 209:Core/Src/main.c ****   /* User can add his own implementation to report the HAL error return state */
 210:Core/Src/main.c ****   __disable_irq();
  35              		.loc 1 210 3 view .LVU1
  36              	.LBB4:
  37              	.LBI4:
  38              		.file 2 "Drivers/CMSIS/Include/cmsis_gcc.h"
   1:Drivers/CMSIS/Include/cmsis_gcc.h **** /**************************************************************************//**
   2:Drivers/CMSIS/Include/cmsis_gcc.h ****  * @file     cmsis_gcc.h
   3:Drivers/CMSIS/Include/cmsis_gcc.h ****  * @brief    CMSIS compiler GCC header file
   4:Drivers/CMSIS/Include/cmsis_gcc.h ****  * @version  V5.0.4
   5:Drivers/CMSIS/Include/cmsis_gcc.h ****  * @date     09. April 2018
   6:Drivers/CMSIS/Include/cmsis_gcc.h ****  ******************************************************************************/
   7:Drivers/CMSIS/Include/cmsis_gcc.h **** /*
   8:Drivers/CMSIS/Include/cmsis_gcc.h ****  * Copyright (c) 2009-2018 Arm Limited. All rights reserved.
   9:Drivers/CMSIS/Include/cmsis_gcc.h ****  *
  10:Drivers/CMSIS/Include/cmsis_gcc.h ****  * SPDX-License-Identifier: Apache-2.0
  11:Drivers/CMSIS/Include/cmsis_gcc.h ****  *
  12:Drivers/CMSIS/Include/cmsis_gcc.h ****  * Licensed under the Apache License, Version 2.0 (the License); you may
  13:Drivers/CMSIS/Include/cmsis_gcc.h ****  * not use this file except in compliance with the License.
  14:Drivers/CMSIS/Include/cmsis_gcc.h ****  * You may obtain a copy of the License at
  15:Drivers/CMSIS/Include/cmsis_gcc.h ****  *
  16:Drivers/CMSIS/Include/cmsis_gcc.h ****  * www.apache.org/licenses/LICENSE-2.0
  17:Drivers/CMSIS/Include/cmsis_gcc.h ****  *
  18:Drivers/CMSIS/Include/cmsis_gcc.h ****  * Unless required by applicable law or agreed to in writing, software
  19:Drivers/CMSIS/Include/cmsis_gcc.h ****  * distributed under the License is distributed on an AS IS BASIS, WITHOUT
  20:Drivers/CMSIS/Include/cmsis_gcc.h ****  * WARRANTIES OR CONDITIONS OF ANY KIND, either express or implied.
  21:Drivers/CMSIS/Include/cmsis_gcc.h ****  * See the License for the specific language governing permissions and
  22:Drivers/CMSIS/Include/cmsis_gcc.h ****  * limitations under the License.
  23:Drivers/CMSIS/Include/cmsis_gcc.h ****  */
  24:Drivers/CMSIS/Include/cmsis_gcc.h **** 
  25:Drivers/CMSIS/Include/cmsis_gcc.h **** #ifndef __CMSIS_GCC_H
  26:Drivers/CMSIS/Include/cmsis_gcc.h **** #define __CMSIS_GCC_H
  27:Drivers/CMSIS/Include/cmsis_gcc.h **** 
  28:Drivers/CMSIS/Include/cmsis_gcc.h **** /* ignore some GCC warnings */
  29:Drivers/CMSIS/Include/cmsis_gcc.h **** #pragma GCC diagnostic push
  30:Drivers/CMSIS/Include/cmsis_gcc.h **** #pragma GCC diagnostic ignored "-Wsign-conversion"
  31:Drivers/CMSIS/Include/cmsis_gcc.h **** #pragma GCC diagnostic ignored "-Wconversion"
  32:Drivers/CMSIS/Include/cmsis_gcc.h **** #pragma GCC diagnostic ignored "-Wunused-parameter"
  33:Drivers/CMSIS/Include/cmsis_gcc.h **** 
  34:Drivers/CMSIS/Include/cmsis_gcc.h **** /* Fallback for __has_builtin */
  35:Drivers/CMSIS/Include/cmsis_gcc.h **** #ifndef __has_builtin
  36:Drivers/CMSIS/Include/cmsis_gcc.h ****   #define __has_builtin(x) (0)
  37:Drivers/CMSIS/Include/cmsis_gcc.h **** #endif
  38:Drivers/CMSIS/Include/cmsis_gcc.h **** 
ARM GAS  C:\Users\du4\AppData\Local\Temp\ccHP9nuU.s 			page 6


  39:Drivers/CMSIS/Include/cmsis_gcc.h **** /* CMSIS compiler specific defines */
  40:Drivers/CMSIS/Include/cmsis_gcc.h **** #ifndef   __ASM
  41:Drivers/CMSIS/Include/cmsis_gcc.h ****   #define __ASM                                  __asm
  42:Drivers/CMSIS/Include/cmsis_gcc.h **** #endif
  43:Drivers/CMSIS/Include/cmsis_gcc.h **** #ifndef   __INLINE
  44:Drivers/CMSIS/Include/cmsis_gcc.h ****   #define __INLINE                               inline
  45:Drivers/CMSIS/Include/cmsis_gcc.h **** #endif
  46:Drivers/CMSIS/Include/cmsis_gcc.h **** #ifndef   __STATIC_INLINE
  47:Drivers/CMSIS/Include/cmsis_gcc.h ****   #define __STATIC_INLINE                        static inline
  48:Drivers/CMSIS/Include/cmsis_gcc.h **** #endif
  49:Drivers/CMSIS/Include/cmsis_gcc.h **** #ifndef   __STATIC_FORCEINLINE                 
  50:Drivers/CMSIS/Include/cmsis_gcc.h ****   #define __STATIC_FORCEINLINE                   __attribute__((always_inline)) static inline
  51:Drivers/CMSIS/Include/cmsis_gcc.h **** #endif                                           
  52:Drivers/CMSIS/Include/cmsis_gcc.h **** #ifndef   __NO_RETURN
  53:Drivers/CMSIS/Include/cmsis_gcc.h ****   #define __NO_RETURN                            __attribute__((__noreturn__))
  54:Drivers/CMSIS/Include/cmsis_gcc.h **** #endif
  55:Drivers/CMSIS/Include/cmsis_gcc.h **** #ifndef   __USED
  56:Drivers/CMSIS/Include/cmsis_gcc.h ****   #define __USED                                 __attribute__((used))
  57:Drivers/CMSIS/Include/cmsis_gcc.h **** #endif
  58:Drivers/CMSIS/Include/cmsis_gcc.h **** #ifndef   __WEAK
  59:Drivers/CMSIS/Include/cmsis_gcc.h ****   #define __WEAK                                 __attribute__((weak))
  60:Drivers/CMSIS/Include/cmsis_gcc.h **** #endif
  61:Drivers/CMSIS/Include/cmsis_gcc.h **** #ifndef   __PACKED
  62:Drivers/CMSIS/Include/cmsis_gcc.h ****   #define __PACKED                               __attribute__((packed, aligned(1)))
  63:Drivers/CMSIS/Include/cmsis_gcc.h **** #endif
  64:Drivers/CMSIS/Include/cmsis_gcc.h **** #ifndef   __PACKED_STRUCT
  65:Drivers/CMSIS/Include/cmsis_gcc.h ****   #define __PACKED_STRUCT                        struct __attribute__((packed, aligned(1)))
  66:Drivers/CMSIS/Include/cmsis_gcc.h **** #endif
  67:Drivers/CMSIS/Include/cmsis_gcc.h **** #ifndef   __PACKED_UNION
  68:Drivers/CMSIS/Include/cmsis_gcc.h ****   #define __PACKED_UNION                         union __attribute__((packed, aligned(1)))
  69:Drivers/CMSIS/Include/cmsis_gcc.h **** #endif
  70:Drivers/CMSIS/Include/cmsis_gcc.h **** #ifndef   __UNALIGNED_UINT32        /* deprecated */
  71:Drivers/CMSIS/Include/cmsis_gcc.h ****   #pragma GCC diagnostic push
  72:Drivers/CMSIS/Include/cmsis_gcc.h ****   #pragma GCC diagnostic ignored "-Wpacked"
  73:Drivers/CMSIS/Include/cmsis_gcc.h ****   #pragma GCC diagnostic ignored "-Wattributes"
  74:Drivers/CMSIS/Include/cmsis_gcc.h ****   struct __attribute__((packed)) T_UINT32 { uint32_t v; };
  75:Drivers/CMSIS/Include/cmsis_gcc.h ****   #pragma GCC diagnostic pop
  76:Drivers/CMSIS/Include/cmsis_gcc.h ****   #define __UNALIGNED_UINT32(x)                  (((struct T_UINT32 *)(x))->v)
  77:Drivers/CMSIS/Include/cmsis_gcc.h **** #endif
  78:Drivers/CMSIS/Include/cmsis_gcc.h **** #ifndef   __UNALIGNED_UINT16_WRITE
  79:Drivers/CMSIS/Include/cmsis_gcc.h ****   #pragma GCC diagnostic push
  80:Drivers/CMSIS/Include/cmsis_gcc.h ****   #pragma GCC diagnostic ignored "-Wpacked"
  81:Drivers/CMSIS/Include/cmsis_gcc.h ****   #pragma GCC diagnostic ignored "-Wattributes"
  82:Drivers/CMSIS/Include/cmsis_gcc.h ****   __PACKED_STRUCT T_UINT16_WRITE { uint16_t v; };
  83:Drivers/CMSIS/Include/cmsis_gcc.h ****   #pragma GCC diagnostic pop
  84:Drivers/CMSIS/Include/cmsis_gcc.h ****   #define __UNALIGNED_UINT16_WRITE(addr, val)    (void)((((struct T_UINT16_WRITE *)(void *)(addr))-
  85:Drivers/CMSIS/Include/cmsis_gcc.h **** #endif
  86:Drivers/CMSIS/Include/cmsis_gcc.h **** #ifndef   __UNALIGNED_UINT16_READ
  87:Drivers/CMSIS/Include/cmsis_gcc.h ****   #pragma GCC diagnostic push
  88:Drivers/CMSIS/Include/cmsis_gcc.h ****   #pragma GCC diagnostic ignored "-Wpacked"
  89:Drivers/CMSIS/Include/cmsis_gcc.h ****   #pragma GCC diagnostic ignored "-Wattributes"
  90:Drivers/CMSIS/Include/cmsis_gcc.h ****   __PACKED_STRUCT T_UINT16_READ { uint16_t v; };
  91:Drivers/CMSIS/Include/cmsis_gcc.h ****   #pragma GCC diagnostic pop
  92:Drivers/CMSIS/Include/cmsis_gcc.h ****   #define __UNALIGNED_UINT16_READ(addr)          (((const struct T_UINT16_READ *)(const void *)(add
  93:Drivers/CMSIS/Include/cmsis_gcc.h **** #endif
  94:Drivers/CMSIS/Include/cmsis_gcc.h **** #ifndef   __UNALIGNED_UINT32_WRITE
  95:Drivers/CMSIS/Include/cmsis_gcc.h ****   #pragma GCC diagnostic push
ARM GAS  C:\Users\du4\AppData\Local\Temp\ccHP9nuU.s 			page 7


  96:Drivers/CMSIS/Include/cmsis_gcc.h ****   #pragma GCC diagnostic ignored "-Wpacked"
  97:Drivers/CMSIS/Include/cmsis_gcc.h ****   #pragma GCC diagnostic ignored "-Wattributes"
  98:Drivers/CMSIS/Include/cmsis_gcc.h ****   __PACKED_STRUCT T_UINT32_WRITE { uint32_t v; };
  99:Drivers/CMSIS/Include/cmsis_gcc.h ****   #pragma GCC diagnostic pop
 100:Drivers/CMSIS/Include/cmsis_gcc.h ****   #define __UNALIGNED_UINT32_WRITE(addr, val)    (void)((((struct T_UINT32_WRITE *)(void *)(addr))-
 101:Drivers/CMSIS/Include/cmsis_gcc.h **** #endif
 102:Drivers/CMSIS/Include/cmsis_gcc.h **** #ifndef   __UNALIGNED_UINT32_READ
 103:Drivers/CMSIS/Include/cmsis_gcc.h ****   #pragma GCC diagnostic push
 104:Drivers/CMSIS/Include/cmsis_gcc.h ****   #pragma GCC diagnostic ignored "-Wpacked"
 105:Drivers/CMSIS/Include/cmsis_gcc.h ****   #pragma GCC diagnostic ignored "-Wattributes"
 106:Drivers/CMSIS/Include/cmsis_gcc.h ****   __PACKED_STRUCT T_UINT32_READ { uint32_t v; };
 107:Drivers/CMSIS/Include/cmsis_gcc.h ****   #pragma GCC diagnostic pop
 108:Drivers/CMSIS/Include/cmsis_gcc.h ****   #define __UNALIGNED_UINT32_READ(addr)          (((const struct T_UINT32_READ *)(const void *)(add
 109:Drivers/CMSIS/Include/cmsis_gcc.h **** #endif
 110:Drivers/CMSIS/Include/cmsis_gcc.h **** #ifndef   __ALIGNED
 111:Drivers/CMSIS/Include/cmsis_gcc.h ****   #define __ALIGNED(x)                           __attribute__((aligned(x)))
 112:Drivers/CMSIS/Include/cmsis_gcc.h **** #endif
 113:Drivers/CMSIS/Include/cmsis_gcc.h **** #ifndef   __RESTRICT
 114:Drivers/CMSIS/Include/cmsis_gcc.h ****   #define __RESTRICT                             __restrict
 115:Drivers/CMSIS/Include/cmsis_gcc.h **** #endif
 116:Drivers/CMSIS/Include/cmsis_gcc.h **** 
 117:Drivers/CMSIS/Include/cmsis_gcc.h **** 
 118:Drivers/CMSIS/Include/cmsis_gcc.h **** /* ###########################  Core Function Access  ########################### */
 119:Drivers/CMSIS/Include/cmsis_gcc.h **** /** \ingroup  CMSIS_Core_FunctionInterface
 120:Drivers/CMSIS/Include/cmsis_gcc.h ****     \defgroup CMSIS_Core_RegAccFunctions CMSIS Core Register Access Functions
 121:Drivers/CMSIS/Include/cmsis_gcc.h ****   @{
 122:Drivers/CMSIS/Include/cmsis_gcc.h ****  */
 123:Drivers/CMSIS/Include/cmsis_gcc.h **** 
 124:Drivers/CMSIS/Include/cmsis_gcc.h **** /**
 125:Drivers/CMSIS/Include/cmsis_gcc.h ****   \brief   Enable IRQ Interrupts
 126:Drivers/CMSIS/Include/cmsis_gcc.h ****   \details Enables IRQ interrupts by clearing the I-bit in the CPSR.
 127:Drivers/CMSIS/Include/cmsis_gcc.h ****            Can only be executed in Privileged modes.
 128:Drivers/CMSIS/Include/cmsis_gcc.h ****  */
 129:Drivers/CMSIS/Include/cmsis_gcc.h **** __STATIC_FORCEINLINE void __enable_irq(void)
 130:Drivers/CMSIS/Include/cmsis_gcc.h **** {
 131:Drivers/CMSIS/Include/cmsis_gcc.h ****   __ASM volatile ("cpsie i" : : : "memory");
 132:Drivers/CMSIS/Include/cmsis_gcc.h **** }
 133:Drivers/CMSIS/Include/cmsis_gcc.h **** 
 134:Drivers/CMSIS/Include/cmsis_gcc.h **** 
 135:Drivers/CMSIS/Include/cmsis_gcc.h **** /**
 136:Drivers/CMSIS/Include/cmsis_gcc.h ****   \brief   Disable IRQ Interrupts
 137:Drivers/CMSIS/Include/cmsis_gcc.h ****   \details Disables IRQ interrupts by setting the I-bit in the CPSR.
 138:Drivers/CMSIS/Include/cmsis_gcc.h ****            Can only be executed in Privileged modes.
 139:Drivers/CMSIS/Include/cmsis_gcc.h ****  */
 140:Drivers/CMSIS/Include/cmsis_gcc.h **** __STATIC_FORCEINLINE void __disable_irq(void)
  39              		.loc 2 140 27 view .LVU2
  40              	.LBB5:
 141:Drivers/CMSIS/Include/cmsis_gcc.h **** {
 142:Drivers/CMSIS/Include/cmsis_gcc.h ****   __ASM volatile ("cpsid i" : : : "memory");
  41              		.loc 2 142 3 view .LVU3
  42              		.syntax unified
  43              	@ 142 "Drivers/CMSIS/Include/cmsis_gcc.h" 1
  44 0000 72B6     		cpsid i
  45              	@ 0 "" 2
  46              		.thumb
  47              		.syntax unified
  48              	.L2:
ARM GAS  C:\Users\du4\AppData\Local\Temp\ccHP9nuU.s 			page 8


  49              	.LBE5:
  50              	.LBE4:
 211:Core/Src/main.c ****   while (1)
  51              		.loc 1 211 3 discriminator 1 view .LVU4
 212:Core/Src/main.c ****   {
 213:Core/Src/main.c ****   }
  52              		.loc 1 213 3 discriminator 1 view .LVU5
 211:Core/Src/main.c ****   while (1)
  53              		.loc 1 211 9 discriminator 1 view .LVU6
  54 0002 FEE7     		b	.L2
  55              		.cfi_endproc
  56              	.LFE240:
  58              		.section	.text.SystemClock_Config,"ax",%progbits
  59              		.align	1
  60              		.global	SystemClock_Config
  61              		.syntax unified
  62              		.thumb
  63              		.thumb_func
  64              		.fpu fpv4-sp-d16
  66              	SystemClock_Config:
  67              	.LFB239:
 160:Core/Src/main.c ****   RCC_OscInitTypeDef RCC_OscInitStruct = {0};
  68              		.loc 1 160 1 view -0
  69              		.cfi_startproc
  70              		@ args = 0, pretend = 0, frame = 80
  71              		@ frame_needed = 0, uses_anonymous_args = 0
  72 0000 00B5     		push	{lr}
  73              	.LCFI0:
  74              		.cfi_def_cfa_offset 4
  75              		.cfi_offset 14, -4
  76 0002 95B0     		sub	sp, sp, #84
  77              	.LCFI1:
  78              		.cfi_def_cfa_offset 88
 161:Core/Src/main.c ****   RCC_ClkInitTypeDef RCC_ClkInitStruct = {0};
  79              		.loc 1 161 3 view .LVU8
 161:Core/Src/main.c ****   RCC_ClkInitTypeDef RCC_ClkInitStruct = {0};
  80              		.loc 1 161 22 is_stmt 0 view .LVU9
  81 0004 3022     		movs	r2, #48
  82 0006 0021     		movs	r1, #0
  83 0008 08A8     		add	r0, sp, #32
  84 000a FFF7FEFF 		bl	memset
  85              	.LVL0:
 162:Core/Src/main.c **** 
  86              		.loc 1 162 3 is_stmt 1 view .LVU10
 162:Core/Src/main.c **** 
  87              		.loc 1 162 22 is_stmt 0 view .LVU11
  88 000e 0023     		movs	r3, #0
  89 0010 0393     		str	r3, [sp, #12]
  90 0012 0493     		str	r3, [sp, #16]
  91 0014 0593     		str	r3, [sp, #20]
  92 0016 0693     		str	r3, [sp, #24]
  93 0018 0793     		str	r3, [sp, #28]
 166:Core/Src/main.c ****   __HAL_PWR_VOLTAGESCALING_CONFIG(PWR_REGULATOR_VOLTAGE_SCALE1);
  94              		.loc 1 166 3 is_stmt 1 view .LVU12
  95              	.LBB6:
 166:Core/Src/main.c ****   __HAL_PWR_VOLTAGESCALING_CONFIG(PWR_REGULATOR_VOLTAGE_SCALE1);
  96              		.loc 1 166 3 view .LVU13
ARM GAS  C:\Users\du4\AppData\Local\Temp\ccHP9nuU.s 			page 9


  97 001a 0193     		str	r3, [sp, #4]
 166:Core/Src/main.c ****   __HAL_PWR_VOLTAGESCALING_CONFIG(PWR_REGULATOR_VOLTAGE_SCALE1);
  98              		.loc 1 166 3 view .LVU14
  99 001c 1E4A     		ldr	r2, .L9
 100 001e 116C     		ldr	r1, [r2, #64]
 101 0020 41F08051 		orr	r1, r1, #268435456
 102 0024 1164     		str	r1, [r2, #64]
 166:Core/Src/main.c ****   __HAL_PWR_VOLTAGESCALING_CONFIG(PWR_REGULATOR_VOLTAGE_SCALE1);
 103              		.loc 1 166 3 view .LVU15
 104 0026 126C     		ldr	r2, [r2, #64]
 105 0028 02F08052 		and	r2, r2, #268435456
 106 002c 0192     		str	r2, [sp, #4]
 166:Core/Src/main.c ****   __HAL_PWR_VOLTAGESCALING_CONFIG(PWR_REGULATOR_VOLTAGE_SCALE1);
 107              		.loc 1 166 3 view .LVU16
 108 002e 019A     		ldr	r2, [sp, #4]
 109              	.LBE6:
 166:Core/Src/main.c ****   __HAL_PWR_VOLTAGESCALING_CONFIG(PWR_REGULATOR_VOLTAGE_SCALE1);
 110              		.loc 1 166 3 view .LVU17
 167:Core/Src/main.c ****   /** Initializes the RCC Oscillators according to the specified parameters
 111              		.loc 1 167 3 view .LVU18
 112              	.LBB7:
 167:Core/Src/main.c ****   /** Initializes the RCC Oscillators according to the specified parameters
 113              		.loc 1 167 3 view .LVU19
 114 0030 0293     		str	r3, [sp, #8]
 167:Core/Src/main.c ****   /** Initializes the RCC Oscillators according to the specified parameters
 115              		.loc 1 167 3 view .LVU20
 116 0032 1A4B     		ldr	r3, .L9+4
 117 0034 1A68     		ldr	r2, [r3]
 118 0036 42F48042 		orr	r2, r2, #16384
 119 003a 1A60     		str	r2, [r3]
 167:Core/Src/main.c ****   /** Initializes the RCC Oscillators according to the specified parameters
 120              		.loc 1 167 3 view .LVU21
 121 003c 1B68     		ldr	r3, [r3]
 122 003e 03F48043 		and	r3, r3, #16384
 123 0042 0293     		str	r3, [sp, #8]
 167:Core/Src/main.c ****   /** Initializes the RCC Oscillators according to the specified parameters
 124              		.loc 1 167 3 view .LVU22
 125 0044 029B     		ldr	r3, [sp, #8]
 126              	.LBE7:
 167:Core/Src/main.c ****   /** Initializes the RCC Oscillators according to the specified parameters
 127              		.loc 1 167 3 view .LVU23
 171:Core/Src/main.c ****   RCC_OscInitStruct.HSEState = RCC_HSE_ON;
 128              		.loc 1 171 3 view .LVU24
 171:Core/Src/main.c ****   RCC_OscInitStruct.HSEState = RCC_HSE_ON;
 129              		.loc 1 171 36 is_stmt 0 view .LVU25
 130 0046 0123     		movs	r3, #1
 131 0048 0893     		str	r3, [sp, #32]
 172:Core/Src/main.c ****   RCC_OscInitStruct.PLL.PLLState = RCC_PLL_ON;
 132              		.loc 1 172 3 is_stmt 1 view .LVU26
 172:Core/Src/main.c ****   RCC_OscInitStruct.PLL.PLLState = RCC_PLL_ON;
 133              		.loc 1 172 30 is_stmt 0 view .LVU27
 134 004a 4FF48033 		mov	r3, #65536
 135 004e 0993     		str	r3, [sp, #36]
 173:Core/Src/main.c ****   RCC_OscInitStruct.PLL.PLLSource = RCC_PLLSOURCE_HSE;
 136              		.loc 1 173 3 is_stmt 1 view .LVU28
 173:Core/Src/main.c ****   RCC_OscInitStruct.PLL.PLLSource = RCC_PLLSOURCE_HSE;
 137              		.loc 1 173 34 is_stmt 0 view .LVU29
ARM GAS  C:\Users\du4\AppData\Local\Temp\ccHP9nuU.s 			page 10


 138 0050 0223     		movs	r3, #2
 139 0052 0E93     		str	r3, [sp, #56]
 174:Core/Src/main.c ****   RCC_OscInitStruct.PLL.PLLM = 8;
 140              		.loc 1 174 3 is_stmt 1 view .LVU30
 174:Core/Src/main.c ****   RCC_OscInitStruct.PLL.PLLM = 8;
 141              		.loc 1 174 35 is_stmt 0 view .LVU31
 142 0054 4FF48003 		mov	r3, #4194304
 143 0058 0F93     		str	r3, [sp, #60]
 175:Core/Src/main.c ****   RCC_OscInitStruct.PLL.PLLN = 192;
 144              		.loc 1 175 3 is_stmt 1 view .LVU32
 175:Core/Src/main.c ****   RCC_OscInitStruct.PLL.PLLN = 192;
 145              		.loc 1 175 30 is_stmt 0 view .LVU33
 146 005a 0823     		movs	r3, #8
 147 005c 1093     		str	r3, [sp, #64]
 176:Core/Src/main.c ****   RCC_OscInitStruct.PLL.PLLP = RCC_PLLP_DIV4;
 148              		.loc 1 176 3 is_stmt 1 view .LVU34
 176:Core/Src/main.c ****   RCC_OscInitStruct.PLL.PLLP = RCC_PLLP_DIV4;
 149              		.loc 1 176 30 is_stmt 0 view .LVU35
 150 005e C023     		movs	r3, #192
 151 0060 1193     		str	r3, [sp, #68]
 177:Core/Src/main.c ****   RCC_OscInitStruct.PLL.PLLQ = 4;
 152              		.loc 1 177 3 is_stmt 1 view .LVU36
 177:Core/Src/main.c ****   RCC_OscInitStruct.PLL.PLLQ = 4;
 153              		.loc 1 177 30 is_stmt 0 view .LVU37
 154 0062 0423     		movs	r3, #4
 155 0064 1293     		str	r3, [sp, #72]
 178:Core/Src/main.c ****   if (HAL_RCC_OscConfig(&RCC_OscInitStruct) != HAL_OK)
 156              		.loc 1 178 3 is_stmt 1 view .LVU38
 178:Core/Src/main.c ****   if (HAL_RCC_OscConfig(&RCC_OscInitStruct) != HAL_OK)
 157              		.loc 1 178 30 is_stmt 0 view .LVU39
 158 0066 1393     		str	r3, [sp, #76]
 179:Core/Src/main.c ****   {
 159              		.loc 1 179 3 is_stmt 1 view .LVU40
 179:Core/Src/main.c ****   {
 160              		.loc 1 179 7 is_stmt 0 view .LVU41
 161 0068 08A8     		add	r0, sp, #32
 162 006a FFF7FEFF 		bl	HAL_RCC_OscConfig
 163              	.LVL1:
 179:Core/Src/main.c ****   {
 164              		.loc 1 179 6 view .LVU42
 165 006e 78B9     		cbnz	r0, .L7
 185:Core/Src/main.c ****                               |RCC_CLOCKTYPE_PCLK1|RCC_CLOCKTYPE_PCLK2;
 166              		.loc 1 185 3 is_stmt 1 view .LVU43
 185:Core/Src/main.c ****                               |RCC_CLOCKTYPE_PCLK1|RCC_CLOCKTYPE_PCLK2;
 167              		.loc 1 185 31 is_stmt 0 view .LVU44
 168 0070 0F23     		movs	r3, #15
 169 0072 0393     		str	r3, [sp, #12]
 187:Core/Src/main.c ****   RCC_ClkInitStruct.AHBCLKDivider = RCC_SYSCLK_DIV2;
 170              		.loc 1 187 3 is_stmt 1 view .LVU45
 187:Core/Src/main.c ****   RCC_ClkInitStruct.AHBCLKDivider = RCC_SYSCLK_DIV2;
 171              		.loc 1 187 34 is_stmt 0 view .LVU46
 172 0074 0223     		movs	r3, #2
 173 0076 0493     		str	r3, [sp, #16]
 188:Core/Src/main.c ****   RCC_ClkInitStruct.APB1CLKDivider = RCC_HCLK_DIV1;
 174              		.loc 1 188 3 is_stmt 1 view .LVU47
 188:Core/Src/main.c ****   RCC_ClkInitStruct.APB1CLKDivider = RCC_HCLK_DIV1;
 175              		.loc 1 188 35 is_stmt 0 view .LVU48
ARM GAS  C:\Users\du4\AppData\Local\Temp\ccHP9nuU.s 			page 11


 176 0078 8023     		movs	r3, #128
 177 007a 0593     		str	r3, [sp, #20]
 189:Core/Src/main.c ****   RCC_ClkInitStruct.APB2CLKDivider = RCC_HCLK_DIV1;
 178              		.loc 1 189 3 is_stmt 1 view .LVU49
 189:Core/Src/main.c ****   RCC_ClkInitStruct.APB2CLKDivider = RCC_HCLK_DIV1;
 179              		.loc 1 189 36 is_stmt 0 view .LVU50
 180 007c 0021     		movs	r1, #0
 181 007e 0691     		str	r1, [sp, #24]
 190:Core/Src/main.c **** 
 182              		.loc 1 190 3 is_stmt 1 view .LVU51
 190:Core/Src/main.c **** 
 183              		.loc 1 190 36 is_stmt 0 view .LVU52
 184 0080 0791     		str	r1, [sp, #28]
 192:Core/Src/main.c ****   {
 185              		.loc 1 192 3 is_stmt 1 view .LVU53
 192:Core/Src/main.c ****   {
 186              		.loc 1 192 7 is_stmt 0 view .LVU54
 187 0082 03A8     		add	r0, sp, #12
 188 0084 FFF7FEFF 		bl	HAL_RCC_ClockConfig
 189              	.LVL2:
 192:Core/Src/main.c ****   {
 190              		.loc 1 192 6 view .LVU55
 191 0088 20B9     		cbnz	r0, .L8
 196:Core/Src/main.c **** 
 192              		.loc 1 196 1 view .LVU56
 193 008a 15B0     		add	sp, sp, #84
 194              	.LCFI2:
 195              		.cfi_remember_state
 196              		.cfi_def_cfa_offset 4
 197              		@ sp needed
 198 008c 5DF804FB 		ldr	pc, [sp], #4
 199              	.L7:
 200              	.LCFI3:
 201              		.cfi_restore_state
 181:Core/Src/main.c ****   }
 202              		.loc 1 181 5 is_stmt 1 view .LVU57
 203 0090 FFF7FEFF 		bl	Error_Handler
 204              	.LVL3:
 205              	.L8:
 194:Core/Src/main.c ****   }
 206              		.loc 1 194 5 view .LVU58
 207 0094 FFF7FEFF 		bl	Error_Handler
 208              	.LVL4:
 209              	.L10:
 210              		.align	2
 211              	.L9:
 212 0098 00380240 		.word	1073887232
 213 009c 00700040 		.word	1073770496
 214              		.cfi_endproc
 215              	.LFE239:
 217              		.section	.text.main,"ax",%progbits
 218              		.align	1
 219              		.global	main
 220              		.syntax unified
 221              		.thumb
 222              		.thumb_func
 223              		.fpu fpv4-sp-d16
ARM GAS  C:\Users\du4\AppData\Local\Temp\ccHP9nuU.s 			page 12


 225              	main:
 226              	.LFB238:
  77:Core/Src/main.c ****   /* USER CODE BEGIN 1 */
 227              		.loc 1 77 1 view -0
 228              		.cfi_startproc
 229              		@ Volatile: function does not return.
 230              		@ args = 0, pretend = 0, frame = 0
 231              		@ frame_needed = 0, uses_anonymous_args = 0
 232 0000 00B5     		push	{lr}
 233              	.LCFI4:
 234              		.cfi_def_cfa_offset 4
 235              		.cfi_offset 14, -4
 236 0002 83B0     		sub	sp, sp, #12
 237              	.LCFI5:
 238              		.cfi_def_cfa_offset 16
  85:Core/Src/main.c **** 
 239              		.loc 1 85 3 view .LVU60
 240 0004 FFF7FEFF 		bl	HAL_Init
 241              	.LVL5:
  92:Core/Src/main.c **** 
 242              		.loc 1 92 3 view .LVU61
 243 0008 FFF7FEFF 		bl	SystemClock_Config
 244              	.LVL6:
  99:Core/Src/main.c ****   MX_ADC1_Init();
 245              		.loc 1 99 3 view .LVU62
 246 000c FFF7FEFF 		bl	MX_GPIO_Init
 247              	.LVL7:
 100:Core/Src/main.c ****   MX_ADC2_Init();
 248              		.loc 1 100 3 view .LVU63
 249 0010 FFF7FEFF 		bl	MX_ADC1_Init
 250              	.LVL8:
 101:Core/Src/main.c ****   MX_SPI1_Init();
 251              		.loc 1 101 3 view .LVU64
 252 0014 FFF7FEFF 		bl	MX_ADC2_Init
 253              	.LVL9:
 102:Core/Src/main.c ****   MX_SPI2_Init();
 254              		.loc 1 102 3 view .LVU65
 255 0018 FFF7FEFF 		bl	MX_SPI1_Init
 256              	.LVL10:
 103:Core/Src/main.c ****   MX_TIM2_Init();
 257              		.loc 1 103 3 view .LVU66
 258 001c FFF7FEFF 		bl	MX_SPI2_Init
 259              	.LVL11:
 104:Core/Src/main.c ****   MX_TIM3_Init();
 260              		.loc 1 104 3 view .LVU67
 261 0020 FFF7FEFF 		bl	MX_TIM2_Init
 262              	.LVL12:
 105:Core/Src/main.c ****   MX_TIM4_Init();
 263              		.loc 1 105 3 view .LVU68
 264 0024 FFF7FEFF 		bl	MX_TIM3_Init
 265              	.LVL13:
 106:Core/Src/main.c ****   MX_USART2_UART_Init();
 266              		.loc 1 106 3 view .LVU69
 267 0028 FFF7FEFF 		bl	MX_TIM4_Init
 268              	.LVL14:
 107:Core/Src/main.c ****   /* USER CODE BEGIN 2 */
 269              		.loc 1 107 3 view .LVU70
ARM GAS  C:\Users\du4\AppData\Local\Temp\ccHP9nuU.s 			page 13


 270 002c FFF7FEFF 		bl	MX_USART2_UART_Init
 271              	.LVL15:
 109:Core/Src/main.c **** 	eMBEnable();
 272              		.loc 1 109 3 view .LVU71
 273 0030 174B     		ldr	r3, .L14
 274 0032 0093     		str	r3, [sp]
 275 0034 4FF4E133 		mov	r3, #115200
 276 0038 164A     		ldr	r2, .L14+4
 277 003a 0121     		movs	r1, #1
 278 003c 0020     		movs	r0, #0
 279 003e FFF7FEFF 		bl	eMBInit
 280              	.LVL16:
 110:Core/Src/main.c **** 
 281              		.loc 1 110 2 view .LVU72
 282 0042 FFF7FEFF 		bl	eMBEnable
 283              	.LVL17:
 112:Core/Src/main.c ****   ST7735_FillScreen(ST7735_BLACK);
 284              		.loc 1 112 3 view .LVU73
 285 0046 FFF7FEFF 		bl	ST7735_Init
 286              	.LVL18:
 113:Core/Src/main.c ****   
 287              		.loc 1 113 3 view .LVU74
 288 004a 0020     		movs	r0, #0
 289 004c FFF7FEFF 		bl	ST7735_FillScreen
 290              	.LVL19:
 115:Core/Src/main.c ****   HAL_TIM_Base_Start_IT(&htim3);
 291              		.loc 1 115 3 view .LVU75
 292 0050 1148     		ldr	r0, .L14+8
 293 0052 FFF7FEFF 		bl	HAL_TIM_Base_Start_IT
 294              	.LVL20:
 116:Core/Src/main.c **** 
 295              		.loc 1 116 3 view .LVU76
 296 0056 1148     		ldr	r0, .L14+12
 297 0058 FFF7FEFF 		bl	HAL_TIM_Base_Start_IT
 298              	.LVL21:
 118:Core/Src/main.c ****   HAL_GPIO_WritePin(GPIOE,GND_Pin,GPIO_PIN_SET);
 299              		.loc 1 118 3 view .LVU77
 300 005c 104C     		ldr	r4, .L14+16
 301 005e 0122     		movs	r2, #1
 302 0060 8021     		movs	r1, #128
 303 0062 2046     		mov	r0, r4
 304 0064 FFF7FEFF 		bl	HAL_GPIO_WritePin
 305              	.LVL22:
 119:Core/Src/main.c ****   
 306              		.loc 1 119 3 view .LVU78
 307 0068 0122     		movs	r2, #1
 308 006a 1021     		movs	r1, #16
 309 006c 2046     		mov	r0, r4
 310 006e FFF7FEFF 		bl	HAL_GPIO_WritePin
 311              	.LVL23:
 312              	.L12:
 125:Core/Src/main.c ****   {  
 313              		.loc 1 125 3 discriminator 1 view .LVU79
 129:Core/Src/main.c ****     // uint16_t *idBase0 = (uint16_t*)(UID_BASE);
 314              		.loc 1 129 5 discriminator 1 view .LVU80
 315 0072 8023     		movs	r3, #128
 316 0074 0093     		str	r3, [sp]
ARM GAS  C:\Users\du4\AppData\Local\Temp\ccHP9nuU.s 			page 14


 317 0076 4023     		movs	r3, #64
 318 0078 1922     		movs	r2, #25
 319 007a 5A21     		movs	r1, #90
 320 007c 0020     		movs	r0, #0
 321 007e FFF7FEFF 		bl	ST7735_Sinus
 322              	.LVL24:
 146:Core/Src/main.c ****     eMBPoll();
 323              		.loc 1 146 5 discriminator 1 view .LVU81
 324 0082 1420     		movs	r0, #20
 325 0084 FFF7FEFF 		bl	HAL_Delay
 326              	.LVL25:
 147:Core/Src/main.c ****     /* USER CODE END WHILE */
 327              		.loc 1 147 5 discriminator 1 view .LVU82
 328 0088 FFF7FEFF 		bl	eMBPoll
 329              	.LVL26:
 125:Core/Src/main.c ****   {  
 330              		.loc 1 125 9 discriminator 1 view .LVU83
 331 008c F1E7     		b	.L12
 332              	.L15:
 333 008e 00BF     		.align	2
 334              	.L14:
 335 0090 00000000 		.word	htim4
 336 0094 00000000 		.word	huart2
 337 0098 00000000 		.word	htim2
 338 009c 00000000 		.word	htim3
 339 00a0 00100240 		.word	1073876992
 340              		.cfi_endproc
 341              	.LFE238:
 343              		.global	img
 344              		.section	.rodata.img,"a"
 345              		.align	2
 348              	img:
 349 0000 0000     		.short	0
 350 0002 0000     		.short	0
 351 0004 0000     		.short	0
 352 0006 0000     		.short	0
 353 0008 0000     		.short	0
 354 000a 0000     		.short	0
 355 000c 0000     		.short	0
 356 000e 0000     		.short	0
 357 0010 0000     		.short	0
 358 0012 0000     		.short	0
 359 0014 0000     		.short	0
 360 0016 0000     		.short	0
 361 0018 0000     		.short	0
 362 001a 0000     		.short	0
 363 001c 0000     		.short	0
 364 001e 0000     		.short	0
 365 0020 0000     		.short	0
 366 0022 0000     		.short	0
 367 0024 0000     		.short	0
 368 0026 0000     		.short	0
 369 0028 0000     		.short	0
 370 002a 0000     		.short	0
 371 002c 0000     		.short	0
 372 002e 0000     		.short	0
 373 0030 0000     		.short	0
ARM GAS  C:\Users\du4\AppData\Local\Temp\ccHP9nuU.s 			page 15


 374 0032 0000     		.short	0
 375 0034 0000     		.short	0
 376 0036 0000     		.short	0
 377 0038 0000     		.short	0
 378 003a 841F     		.short	8068
 379 003c 841F     		.short	8068
 380 003e 0000     		.short	0
 381 0040 0000     		.short	0
 382 0042 0000     		.short	0
 383 0044 0000     		.short	0
 384 0046 0000     		.short	0
 385 0048 0000     		.short	0
 386 004a 0000     		.short	0
 387 004c 0000     		.short	0
 388 004e 0000     		.short	0
 389 0050 0000     		.short	0
 390 0052 0000     		.short	0
 391 0054 0000     		.short	0
 392 0056 0000     		.short	0
 393 0058 0000     		.short	0
 394 005a 0000     		.short	0
 395 005c 4ABC     		.short	-17334
 396 005e 4ABC     		.short	-17334
 397 0060 4ABC     		.short	-17334
 398 0062 429B     		.short	-25790
 399 0064 429B     		.short	-25790
 400 0066 427B     		.short	31554
 401 0068 3A7B     		.short	31546
 402 006a 3A5B     		.short	23354
 403 006c 0000     		.short	0
 404 006e 0000     		.short	0
 405 0070 0000     		.short	0
 406 0072 0000     		.short	0
 407 0074 0000     		.short	0
 408 0076 0000     		.short	0
 409 0078 0000     		.short	0
 410 007a 0000     		.short	0
 411 007c 0000     		.short	0
 412 007e 0000     		.short	0
 413 0080 421F     		.short	8002
 414 0082 4ADC     		.short	-9142
 415 0084 4ADC     		.short	-9142
 416 0086 4ABC     		.short	-17334
 417 0088 4ABB     		.short	-17590
 418 008a 429B     		.short	-25790
 419 008c 427B     		.short	31554
 420 008e 427B     		.short	31554
 421 0090 3A5B     		.short	23354
 422 0092 3A5B     		.short	23354
 423 0094 3A3B     		.short	15162
 424 0096 3199     		.short	-26319
 425 0098 0000     		.short	0
 426 009a 0000     		.short	0
 427 009c 0000     		.short	0
 428 009e 0000     		.short	0
 429 00a0 0000     		.short	0
 430 00a2 0000     		.short	0
ARM GAS  C:\Users\du4\AppData\Local\Temp\ccHP9nuU.s 			page 16


 431 00a4 0000     		.short	0
 432 00a6 3339     		.short	14643
 433 00a8 4ADC     		.short	-9142
 434 00aa 4ADC     		.short	-9142
 435 00ac 4ABC     		.short	-17334
 436 00ae 4ABB     		.short	-17590
 437 00b0 429B     		.short	-25790
 438 00b2 429B     		.short	-25790
 439 00b4 427B     		.short	31554
 440 00b6 427B     		.short	31554
 441 00b8 3A5B     		.short	23354
 442 00ba 3A5B     		.short	23354
 443 00bc 3A3B     		.short	15162
 444 00be 323B     		.short	15154
 445 00c0 3199     		.short	-26319
 446 00c2 0000     		.short	0
 447 00c4 0000     		.short	0
 448 00c6 0000     		.short	0
 449 00c8 0000     		.short	0
 450 00ca 0000     		.short	0
 451 00cc 0000     		.short	0
 452 00ce 4ADB     		.short	-9398
 453 00d0 4ADC     		.short	-9142
 454 00d2 4ABC     		.short	-17334
 455 00d4 4ABC     		.short	-17334
 456 00d6 4A9B     		.short	-25782
 457 00d8 429B     		.short	-25790
 458 00da 427B     		.short	31554
 459 00dc 427B     		.short	31554
 460 00de 3A5B     		.short	23354
 461 00e0 3A5B     		.short	23354
 462 00e2 3A3B     		.short	15162
 463 00e4 3A3B     		.short	15162
 464 00e6 321A     		.short	6706
 465 00e8 321A     		.short	6706
 466 00ea 0000     		.short	0
 467 00ec 0000     		.short	0
 468 00ee 0000     		.short	0
 469 00f0 0000     		.short	0
 470 00f2 0000     		.short	0
 471 00f4 6543     		.short	17253
 472 00f6 64A8     		.short	-22428
 473 00f8 4ABB     		.short	-17590
 474 00fa 4ABC     		.short	-17334
 475 00fc 4ABB     		.short	-17590
 476 00fe 429B     		.short	-25790
 477 0100 8CBC     		.short	-17268
 478 0102 E71E     		.short	7911
 479 0104 E73E     		.short	16103
 480 0106 8E5D     		.short	23950
 481 0108 459C     		.short	-25531
 482 010a 3D9C     		.short	-25539
 483 010c 3D9C     		.short	-25539
 484 010e 3D9D     		.short	-25283
 485 0110 3DBD     		.short	-17091
 486 0112 3E3F     		.short	16190
 487 0114 0000     		.short	0
ARM GAS  C:\Users\du4\AppData\Local\Temp\ccHP9nuU.s 			page 17


 488 0116 0000     		.short	0
 489 0118 0000     		.short	0
 490 011a 0000     		.short	0
 491 011c 6D43     		.short	17261
 492 011e 6D43     		.short	17261
 493 0120 42B7     		.short	-18622
 494 0122 427A     		.short	31298
 495 0124 429B     		.short	-25790
 496 0126 E73E     		.short	16103
 497 0128 F677     		.short	30710
 498 012a F449     		.short	18932
 499 012c F429     		.short	10740
 500 012e F656     		.short	22262
 501 0130 DF7E     		.short	32479
 502 0132 3DDD     		.short	-8899
 503 0134 3E1E     		.short	7742
 504 0136 463F     		.short	16198
 505 0138 3E3F     		.short	16190
 506 013a 3E3F     		.short	16190
 507 013c 0000     		.short	0
 508 013e 0000     		.short	0
 509 0140 0000     		.short	0
 510 0142 0000     		.short	0
 511 0144 6543     		.short	17253
 512 0146 6542     		.short	16997
 513 0148 6524     		.short	9317
 514 014a 3A59     		.short	22842
 515 014c 94BB     		.short	-17516
 516 014e F677     		.short	30710
 517 0150 F428     		.short	10484
 518 0152 F407     		.short	2036
 519 0154 F3E7     		.short	-6157
 520 0156 F3E6     		.short	-6413
 521 0158 F635     		.short	13814
 522 015a 8EDE     		.short	-8562
 523 015c 463F     		.short	16198
 524 015e 3E3F     		.short	16190
 525 0160 3E3F     		.short	16190
 526 0162 3E3F     		.short	16190
 527 0164 0000     		.short	0
 528 0166 0000     		.short	0
 529 0168 0000     		.short	0
 530 016a 8400     		.short	132
 531 016c 6542     		.short	16997
 532 016e 6542     		.short	16997
 533 0170 6542     		.short	16997
 534 0172 4B52     		.short	21067
 535 0174 E71D     		.short	7655
 536 0176 F449     		.short	18932
 537 0178 F407     		.short	2036
 538 017a F3E7     		.short	-6157
 539 017c F3E6     		.short	-6413
 540 017e EBC6     		.short	-14613
 541 0180 EBE7     		.short	-6165
 542 0182 DF7E     		.short	32479
 543 0184 3E3F     		.short	16190
 544 0186 3E3F     		.short	16190
ARM GAS  C:\Users\du4\AppData\Local\Temp\ccHP9nuU.s 			page 18


 545 0188 3E3F     		.short	16190
 546 018a 3E3E     		.short	15934
 547 018c 45FF     		.short	-187
 548 018e 0000     		.short	0
 549 0190 0000     		.short	0
 550 0192 8400     		.short	132
 551 0194 6522     		.short	8805
 552 0196 6522     		.short	8805
 553 0198 6522     		.short	8805
 554 019a 6522     		.short	8805
 555 019c E71D     		.short	7655
 556 019e F428     		.short	10484
 557 01a0 F3E7     		.short	-6157
 558 01a2 F3E6     		.short	-6413
 559 01a4 EBC6     		.short	-14613
 560 01a6 EBA6     		.short	-22805
 561 01a8 EBC6     		.short	-14613
 562 01aa DF7E     		.short	32479
 563 01ac 3E3F     		.short	16190
 564 01ae 3E3F     		.short	16190
 565 01b0 3E3E     		.short	15934
 566 01b2 3E3E     		.short	15934
 567 01b4 367F     		.short	32566
 568 01b6 0000     		.short	0
 569 01b8 0000     		.short	0
 570 01ba 0000     		.short	0
 571 01bc 6522     		.short	8805
 572 01be 6522     		.short	8805
 573 01c0 6522     		.short	8805
 574 01c2 6522     		.short	8805
 575 01c4 A64F     		.short	20390
 576 01c6 F656     		.short	22262
 577 01c8 F3E6     		.short	-6413
 578 01ca EBC6     		.short	-14613
 579 01cc EBA6     		.short	-22805
 580 01ce EBA5     		.short	-23061
 581 01d0 EDF4     		.short	-2835
 582 01d2 8EDE     		.short	-8562
 583 01d4 3E3F     		.short	16190
 584 01d6 3E3E     		.short	15934
 585 01d8 3E3E     		.short	15934
 586 01da 3E3E     		.short	15934
 587 01dc 0000     		.short	0
 588 01de 0000     		.short	0
 589 01e0 0000     		.short	0
 590 01e2 0000     		.short	0
 591 01e4 6522     		.short	8805
 592 01e6 6522     		.short	8805
 593 01e8 6522     		.short	8805
 594 01ea 6522     		.short	8805
 595 01ec 6522     		.short	8805
 596 01ee E77C     		.short	31975
 597 01f0 F635     		.short	13814
 598 01f2 EBE7     		.short	-6165
 599 01f4 EBC6     		.short	-14613
 600 01f6 EDF4     		.short	-2835
 601 01f8 E75B     		.short	23527
ARM GAS  C:\Users\du4\AppData\Local\Temp\ccHP9nuU.s 			page 19


 602 01fa 3E3F     		.short	16190
 603 01fc 3E3E     		.short	15934
 604 01fe 3E3E     		.short	15934
 605 0200 3E3E     		.short	15934
 606 0202 3E3E     		.short	15934
 607 0204 0000     		.short	0
 608 0206 0000     		.short	0
 609 0208 0000     		.short	0
 610 020a 0000     		.short	0
 611 020c 6522     		.short	8805
 612 020e 6522     		.short	8805
 613 0210 6501     		.short	357
 614 0212 6501     		.short	357
 615 0214 6501     		.short	357
 616 0216 6501     		.short	357
 617 0218 A64F     		.short	20390
 618 021a EF7C     		.short	31983
 619 021c E75B     		.short	23527
 620 021e 95CD     		.short	-12907
 621 0220 45D7     		.short	-10427
 622 0222 3E3E     		.short	15934
 623 0224 3E3E     		.short	15934
 624 0226 3E3E     		.short	15934
 625 0228 3E3E     		.short	15934
 626 022a 3E1E     		.short	7742
 627 022c 0000     		.short	0
 628 022e 0000     		.short	0
 629 0230 0000     		.short	0
 630 0232 0000     		.short	0
 631 0234 0000     		.short	0
 632 0236 6501     		.short	357
 633 0238 6501     		.short	357
 634 023a 6501     		.short	357
 635 023c 6501     		.short	357
 636 023e 5D01     		.short	349
 637 0240 5D01     		.short	349
 638 0242 5D01     		.short	349
 639 0244 5481     		.short	-32428
 640 0246 54A3     		.short	-23724
 641 0248 3E3E     		.short	15934
 642 024a 3E3E     		.short	15934
 643 024c 3E3E     		.short	15934
 644 024e 3E3E     		.short	15934
 645 0250 3E1E     		.short	7742
 646 0252 0000     		.short	0
 647 0254 0000     		.short	0
 648 0256 0000     		.short	0
 649 0258 0000     		.short	0
 650 025a 0000     		.short	0
 651 025c 0000     		.short	0
 652 025e 45E0     		.short	-8123
 653 0260 5D01     		.short	349
 654 0262 5D01     		.short	349
 655 0264 5D01     		.short	349
 656 0266 5D01     		.short	349
 657 0268 5D01     		.short	349
 658 026a 5D01     		.short	349
ARM GAS  C:\Users\du4\AppData\Local\Temp\ccHP9nuU.s 			page 20


 659 026c 5481     		.short	-32428
 660 026e 3E1C     		.short	7230
 661 0270 3E3E     		.short	15934
 662 0272 3E3E     		.short	15934
 663 0274 3E3E     		.short	15934
 664 0276 3E1E     		.short	7742
 665 0278 2EBF     		.short	-16594
 666 027a 0000     		.short	0
 667 027c 0000     		.short	0
 668 027e 0000     		.short	0
 669 0280 0000     		.short	0
 670 0282 0000     		.short	0
 671 0284 0000     		.short	0
 672 0286 0000     		.short	0
 673 0288 64C0     		.short	-16284
 674 028a 5D01     		.short	349
 675 028c 5D01     		.short	349
 676 028e 5CE1     		.short	-7844
 677 0290 5CE1     		.short	-7844
 678 0292 5CE1     		.short	-7844
 679 0294 4D08     		.short	2125
 680 0296 3E3E     		.short	15934
 681 0298 3E3E     		.short	15934
 682 029a 3E3E     		.short	15934
 683 029c 3E1E     		.short	7742
 684 029e 367F     		.short	32566
 685 02a0 0000     		.short	0
 686 02a2 0000     		.short	0
 687 02a4 0000     		.short	0
 688 02a6 0000     		.short	0
 689 02a8 0000     		.short	0
 690 02aa 0000     		.short	0
 691 02ac 0000     		.short	0
 692 02ae 0000     		.short	0
 693 02b0 0000     		.short	0
 694 02b2 0000     		.short	0
 695 02b4 5CE1     		.short	-7844
 696 02b6 5CE1     		.short	-7844
 697 02b8 5CE1     		.short	-7844
 698 02ba 5CE1     		.short	-7844
 699 02bc 3E3E     		.short	15934
 700 02be 3E3E     		.short	15934
 701 02c0 3E3E     		.short	15934
 702 02c2 3E3E     		.short	15934
 703 02c4 0000     		.short	0
 704 02c6 0000     		.short	0
 705 02c8 0000     		.short	0
 706 02ca 0000     		.short	0
 707 02cc 0000     		.short	0
 708 02ce 0000     		.short	0
 709 02d0 0000     		.short	0
 710 02d2 0000     		.short	0
 711 02d4 0000     		.short	0
 712 02d6 0000     		.short	0
 713 02d8 0000     		.short	0
 714 02da 0000     		.short	0
 715 02dc 0000     		.short	0
ARM GAS  C:\Users\du4\AppData\Local\Temp\ccHP9nuU.s 			page 21


 716 02de 0000     		.short	0
 717 02e0 0000     		.short	0
 718 02e2 554A     		.short	19029
 719 02e4 367F     		.short	32566
 720 02e6 0000     		.short	0
 721 02e8 0000     		.short	0
 722 02ea 0000     		.short	0
 723 02ec 0000     		.short	0
 724 02ee 0000     		.short	0
 725 02f0 0000     		.short	0
 726 02f2 0000     		.short	0
 727 02f4 0000     		.short	0
 728 02f6 0000     		.short	0
 729 02f8 0000     		.short	0
 730 02fa 0000     		.short	0
 731 02fc 0000     		.short	0
 732 02fe 0000     		.short	0
 733 0300 0000     		.short	0
 734 0302 0000     		.short	0
 735 0304 0000     		.short	0
 736 0306 0000     		.short	0
 737 0308 0000     		.short	0
 738 030a 0000     		.short	0
 739 030c 0000     		.short	0
 740 030e 0000     		.short	0
 741 0310 0000     		.short	0
 742 0312 0000     		.short	0
 743 0314 0000     		.short	0
 744 0316 0000     		.short	0
 745 0318 0000     		.short	0
 746 031a 0000     		.short	0
 747 031c 0000     		.short	0
 748 031e 0000     		.short	0
 749              		.text
 750              	.Letext0:
 751              		.file 3 "c:\\vscodeproject\\software\\arm_gcc\\arm-none-eabi\\include\\machine\\_default_types.h"
 752              		.file 4 "c:\\vscodeproject\\software\\arm_gcc\\arm-none-eabi\\include\\sys\\_stdint.h"
 753              		.file 5 "Drivers/CMSIS/Include/core_cm4.h"
 754              		.file 6 "Drivers/CMSIS/Device/ST/STM32F4xx/Include/system_stm32f4xx.h"
 755              		.file 7 "Drivers/CMSIS/Device/ST/STM32F4xx/Include/stm32f407xx.h"
 756              		.file 8 "Drivers/CMSIS/Device/ST/STM32F4xx/Include/stm32f4xx.h"
 757              		.file 9 "Drivers/STM32F4xx_HAL_Driver/Inc/stm32f4xx_hal_def.h"
 758              		.file 10 "Drivers/STM32F4xx_HAL_Driver/Inc/stm32f4xx_hal_rcc_ex.h"
 759              		.file 11 "Drivers/STM32F4xx_HAL_Driver/Inc/stm32f4xx_hal_rcc.h"
 760              		.file 12 "Drivers/STM32F4xx_HAL_Driver/Inc/stm32f4xx_hal_gpio.h"
 761              		.file 13 "Drivers/STM32F4xx_HAL_Driver/Inc/stm32f4xx_hal_dma.h"
 762              		.file 14 "Drivers/STM32F4xx_HAL_Driver/Inc/stm32f4xx_hal_adc.h"
 763              		.file 15 "Drivers/STM32F4xx_HAL_Driver/Inc/stm32f4xx_hal_spi.h"
 764              		.file 16 "Drivers/STM32F4xx_HAL_Driver/Inc/stm32f4xx_hal_tim.h"
 765              		.file 17 "Drivers/STM32F4xx_HAL_Driver/Inc/stm32f4xx_hal_uart.h"
 766              		.file 18 "Drivers/STM32F4xx_HAL_Driver/Inc/stm32f4xx_hal.h"
 767              		.file 19 "c:\\vscodeproject\\software\\arm_gcc\\arm-none-eabi\\include\\sys\\lock.h"
 768              		.file 20 "c:\\vscodeproject\\software\\arm_gcc\\arm-none-eabi\\include\\sys\\_types.h"
 769              		.file 21 "c:\\vscodeproject\\software\\arm_gcc\\lib\\gcc\\arm-none-eabi\\9.2.1\\include\\stddef.h"
 770              		.file 22 "c:\\vscodeproject\\software\\arm_gcc\\arm-none-eabi\\include\\sys\\reent.h"
 771              		.file 23 "Core/Inc/adc.h"
 772              		.file 24 "Core/Inc/spi.h"
ARM GAS  C:\Users\du4\AppData\Local\Temp\ccHP9nuU.s 			page 22


 773              		.file 25 "Core/Inc/tim.h"
 774              		.file 26 "Core/Inc/usart.h"
 775              		.file 27 "Drivers/FreeModbus/port/port.h"
 776              		.file 28 "Drivers/FreeModbus/include/mbport.h"
 777              		.file 29 "Drivers/FreeModbus/include/mb.h"
 778              		.file 30 "Drivers/TFT/fonts.h"
 779              		.file 31 "Core/Inc/gpio.h"
 780              		.file 32 "Drivers/TFT/st7735.h"
 781              		.file 33 "Drivers/TFT/img.h"
 782              		.file 34 "<built-in>"
ARM GAS  C:\Users\du4\AppData\Local\Temp\ccHP9nuU.s 			page 23


DEFINED SYMBOLS
                            *ABS*:0000000000000000 main.c
C:\Users\du4\AppData\Local\Temp\ccHP9nuU.s:18     .text.Error_Handler:0000000000000000 $t
C:\Users\du4\AppData\Local\Temp\ccHP9nuU.s:26     .text.Error_Handler:0000000000000000 Error_Handler
C:\Users\du4\AppData\Local\Temp\ccHP9nuU.s:59     .text.SystemClock_Config:0000000000000000 $t
C:\Users\du4\AppData\Local\Temp\ccHP9nuU.s:66     .text.SystemClock_Config:0000000000000000 SystemClock_Config
C:\Users\du4\AppData\Local\Temp\ccHP9nuU.s:212    .text.SystemClock_Config:0000000000000098 $d
C:\Users\du4\AppData\Local\Temp\ccHP9nuU.s:218    .text.main:0000000000000000 $t
C:\Users\du4\AppData\Local\Temp\ccHP9nuU.s:225    .text.main:0000000000000000 main
C:\Users\du4\AppData\Local\Temp\ccHP9nuU.s:335    .text.main:0000000000000090 $d
C:\Users\du4\AppData\Local\Temp\ccHP9nuU.s:348    .rodata.img:0000000000000000 img
C:\Users\du4\AppData\Local\Temp\ccHP9nuU.s:345    .rodata.img:0000000000000000 $d

UNDEFINED SYMBOLS
memset
HAL_RCC_OscConfig
HAL_RCC_ClockConfig
HAL_Init
MX_GPIO_Init
MX_ADC1_Init
MX_ADC2_Init
MX_SPI1_Init
MX_SPI2_Init
MX_TIM2_Init
MX_TIM3_Init
MX_TIM4_Init
MX_USART2_UART_Init
eMBInit
eMBEnable
ST7735_Init
ST7735_FillScreen
HAL_TIM_Base_Start_IT
HAL_GPIO_WritePin
ST7735_Sinus
HAL_Delay
eMBPoll
htim4
huart2
htim2
htim3
