ARM GAS  C:\Users\Andre\AppData\Local\Temp\ccdLW6tk.s 			page 1


   1              		.cpu cortex-m4
   2              		.eabi_attribute 27, 1
   3              		.eabi_attribute 28, 1
   4              		.eabi_attribute 20, 1
   5              		.eabi_attribute 21, 1
   6              		.eabi_attribute 23, 3
   7              		.eabi_attribute 24, 1
   8              		.eabi_attribute 25, 1
   9              		.eabi_attribute 26, 1
  10              		.eabi_attribute 30, 1
  11              		.eabi_attribute 34, 1
  12              		.eabi_attribute 18, 4
  13              		.file	"stm32f4xx_it.c"
  14              		.text
  15              	.Ltext0:
  16              		.cfi_sections	.debug_frame
  17              		.section	.text.NMI_Handler,"ax",%progbits
  18              		.align	1
  19              		.global	NMI_Handler
  20              		.arch armv7e-m
  21              		.syntax unified
  22              		.thumb
  23              		.thumb_func
  24              		.fpu fpv4-sp-d16
  26              	NMI_Handler:
  27              	.LFB235:
  28              		.file 1 "Src/stm32f4xx_it.c"
   1:Src/stm32f4xx_it.c **** /* USER CODE BEGIN Header */
   2:Src/stm32f4xx_it.c **** /**
   3:Src/stm32f4xx_it.c ****   ******************************************************************************
   4:Src/stm32f4xx_it.c ****   * @file    stm32f4xx_it.c
   5:Src/stm32f4xx_it.c ****   * @brief   Interrupt Service Routines.
   6:Src/stm32f4xx_it.c ****   ******************************************************************************
   7:Src/stm32f4xx_it.c ****   * @attention
   8:Src/stm32f4xx_it.c ****   *
   9:Src/stm32f4xx_it.c ****   * <h2><center>&copy; Copyright (c) 2021 STMicroelectronics.
  10:Src/stm32f4xx_it.c ****   * All rights reserved.</center></h2>
  11:Src/stm32f4xx_it.c ****   *
  12:Src/stm32f4xx_it.c ****   * This software component is licensed by ST under BSD 3-Clause license,
  13:Src/stm32f4xx_it.c ****   * the "License"; You may not use this file except in compliance with the
  14:Src/stm32f4xx_it.c ****   * License. You may obtain a copy of the License at:
  15:Src/stm32f4xx_it.c ****   *                        opensource.org/licenses/BSD-3-Clause
  16:Src/stm32f4xx_it.c ****   *
  17:Src/stm32f4xx_it.c ****   ******************************************************************************
  18:Src/stm32f4xx_it.c ****   */
  19:Src/stm32f4xx_it.c **** /* USER CODE END Header */
  20:Src/stm32f4xx_it.c **** 
  21:Src/stm32f4xx_it.c **** /* Includes ------------------------------------------------------------------*/
  22:Src/stm32f4xx_it.c **** #include "main.h"
  23:Src/stm32f4xx_it.c **** #include "stm32f4xx_it.h"
  24:Src/stm32f4xx_it.c **** /* Private includes ----------------------------------------------------------*/
  25:Src/stm32f4xx_it.c **** /* USER CODE BEGIN Includes */
  26:Src/stm32f4xx_it.c **** /* USER CODE END Includes */
  27:Src/stm32f4xx_it.c **** 
  28:Src/stm32f4xx_it.c **** /* Private typedef -----------------------------------------------------------*/
  29:Src/stm32f4xx_it.c **** /* USER CODE BEGIN TD */
  30:Src/stm32f4xx_it.c **** #include "ReceiveTransmit.h"
ARM GAS  C:\Users\Andre\AppData\Local\Temp\ccdLW6tk.s 			page 2


  31:Src/stm32f4xx_it.c **** /* USER CODE END TD */
  32:Src/stm32f4xx_it.c **** 
  33:Src/stm32f4xx_it.c **** /* Private define ------------------------------------------------------------*/
  34:Src/stm32f4xx_it.c **** /* USER CODE BEGIN PD */
  35:Src/stm32f4xx_it.c **** extern ADC_HandleTypeDef hadc1;
  36:Src/stm32f4xx_it.c **** 
  37:Src/stm32f4xx_it.c **** extern uint16_t usSRegInBuf[];
  38:Src/stm32f4xx_it.c **** extern uint16_t usSRegHoldBuf[];
  39:Src/stm32f4xx_it.c **** /* USER CODE END PD */
  40:Src/stm32f4xx_it.c **** 
  41:Src/stm32f4xx_it.c **** /* Private macro -------------------------------------------------------------*/
  42:Src/stm32f4xx_it.c **** /* USER CODE BEGIN PM */
  43:Src/stm32f4xx_it.c **** float Result = 0;
  44:Src/stm32f4xx_it.c **** float voltageADC = 0;
  45:Src/stm32f4xx_it.c **** float temp;
  46:Src/stm32f4xx_it.c **** /* USER CODE END PM */
  47:Src/stm32f4xx_it.c **** 
  48:Src/stm32f4xx_it.c **** /* Private variables ---------------------------------------------------------*/
  49:Src/stm32f4xx_it.c **** /* USER CODE BEGIN PV */
  50:Src/stm32f4xx_it.c **** 
  51:Src/stm32f4xx_it.c **** /* USER CODE END PV */
  52:Src/stm32f4xx_it.c **** 
  53:Src/stm32f4xx_it.c **** /* Private function prototypes -----------------------------------------------*/
  54:Src/stm32f4xx_it.c **** /* USER CODE BEGIN PFP */
  55:Src/stm32f4xx_it.c **** 
  56:Src/stm32f4xx_it.c **** /* USER CODE END PFP */
  57:Src/stm32f4xx_it.c **** 
  58:Src/stm32f4xx_it.c **** /* Private user code ---------------------------------------------------------*/
  59:Src/stm32f4xx_it.c **** /* USER CODE BEGIN 0 */
  60:Src/stm32f4xx_it.c **** 
  61:Src/stm32f4xx_it.c **** /* USER CODE END 0 */
  62:Src/stm32f4xx_it.c **** 
  63:Src/stm32f4xx_it.c **** /* External variables --------------------------------------------------------*/
  64:Src/stm32f4xx_it.c **** extern TIM_HandleTypeDef htim3;
  65:Src/stm32f4xx_it.c **** extern TIM_HandleTypeDef htim4;
  66:Src/stm32f4xx_it.c **** extern UART_HandleTypeDef huart1;
  67:Src/stm32f4xx_it.c **** extern UART_HandleTypeDef huart2;
  68:Src/stm32f4xx_it.c **** /* USER CODE BEGIN EV */
  69:Src/stm32f4xx_it.c **** 
  70:Src/stm32f4xx_it.c **** /* USER CODE END EV */
  71:Src/stm32f4xx_it.c **** 
  72:Src/stm32f4xx_it.c **** /******************************************************************************/
  73:Src/stm32f4xx_it.c **** /*           Cortex-M4 Processor Interruption and Exception Handlers          */
  74:Src/stm32f4xx_it.c **** /******************************************************************************/
  75:Src/stm32f4xx_it.c **** /**
  76:Src/stm32f4xx_it.c ****   * @brief This function handles Non maskable interrupt.
  77:Src/stm32f4xx_it.c ****   */
  78:Src/stm32f4xx_it.c **** void NMI_Handler(void)
  79:Src/stm32f4xx_it.c **** {
  29              		.loc 1 79 1 view -0
  30              		.cfi_startproc
  31              		@ Volatile: function does not return.
  32              		@ args = 0, pretend = 0, frame = 0
  33              		@ frame_needed = 0, uses_anonymous_args = 0
  34              		@ link register save eliminated.
  35              	.L2:
  80:Src/stm32f4xx_it.c ****   /* USER CODE BEGIN NonMaskableInt_IRQn 0 */
ARM GAS  C:\Users\Andre\AppData\Local\Temp\ccdLW6tk.s 			page 3


  81:Src/stm32f4xx_it.c **** 
  82:Src/stm32f4xx_it.c ****   /* USER CODE END NonMaskableInt_IRQn 0 */
  83:Src/stm32f4xx_it.c ****   /* USER CODE BEGIN NonMaskableInt_IRQn 1 */
  84:Src/stm32f4xx_it.c ****   while (1)
  36              		.loc 1 84 3 discriminator 1 view .LVU1
  85:Src/stm32f4xx_it.c ****   {
  86:Src/stm32f4xx_it.c ****   }
  37              		.loc 1 86 3 discriminator 1 view .LVU2
  84:Src/stm32f4xx_it.c ****   {
  38              		.loc 1 84 9 discriminator 1 view .LVU3
  39 0000 FEE7     		b	.L2
  40              		.cfi_endproc
  41              	.LFE235:
  43              		.section	.text.HardFault_Handler,"ax",%progbits
  44              		.align	1
  45              		.global	HardFault_Handler
  46              		.syntax unified
  47              		.thumb
  48              		.thumb_func
  49              		.fpu fpv4-sp-d16
  51              	HardFault_Handler:
  52              	.LFB236:
  87:Src/stm32f4xx_it.c ****   /* USER CODE END NonMaskableInt_IRQn 1 */
  88:Src/stm32f4xx_it.c **** }
  89:Src/stm32f4xx_it.c **** 
  90:Src/stm32f4xx_it.c **** /**
  91:Src/stm32f4xx_it.c ****   * @brief This function handles Hard fault interrupt.
  92:Src/stm32f4xx_it.c ****   */
  93:Src/stm32f4xx_it.c **** void HardFault_Handler(void)
  94:Src/stm32f4xx_it.c **** {
  53              		.loc 1 94 1 view -0
  54              		.cfi_startproc
  55              		@ Volatile: function does not return.
  56              		@ args = 0, pretend = 0, frame = 0
  57              		@ frame_needed = 0, uses_anonymous_args = 0
  58              		@ link register save eliminated.
  59              	.L4:
  95:Src/stm32f4xx_it.c ****   /* USER CODE BEGIN HardFault_IRQn 0 */
  96:Src/stm32f4xx_it.c **** 
  97:Src/stm32f4xx_it.c ****   /* USER CODE END HardFault_IRQn 0 */
  98:Src/stm32f4xx_it.c ****   while (1)
  60              		.loc 1 98 3 discriminator 1 view .LVU5
  99:Src/stm32f4xx_it.c ****   {
 100:Src/stm32f4xx_it.c ****     /* USER CODE BEGIN W1_HardFault_IRQn 0 */
 101:Src/stm32f4xx_it.c ****     /* USER CODE END W1_HardFault_IRQn 0 */
 102:Src/stm32f4xx_it.c ****   }
  61              		.loc 1 102 3 discriminator 1 view .LVU6
  98:Src/stm32f4xx_it.c ****   {
  62              		.loc 1 98 9 discriminator 1 view .LVU7
  63 0000 FEE7     		b	.L4
  64              		.cfi_endproc
  65              	.LFE236:
  67              		.section	.text.MemManage_Handler,"ax",%progbits
  68              		.align	1
  69              		.global	MemManage_Handler
  70              		.syntax unified
  71              		.thumb
ARM GAS  C:\Users\Andre\AppData\Local\Temp\ccdLW6tk.s 			page 4


  72              		.thumb_func
  73              		.fpu fpv4-sp-d16
  75              	MemManage_Handler:
  76              	.LFB237:
 103:Src/stm32f4xx_it.c **** }
 104:Src/stm32f4xx_it.c **** 
 105:Src/stm32f4xx_it.c **** /**
 106:Src/stm32f4xx_it.c ****   * @brief This function handles Memory management fault.
 107:Src/stm32f4xx_it.c ****   */
 108:Src/stm32f4xx_it.c **** void MemManage_Handler(void)
 109:Src/stm32f4xx_it.c **** {
  77              		.loc 1 109 1 view -0
  78              		.cfi_startproc
  79              		@ Volatile: function does not return.
  80              		@ args = 0, pretend = 0, frame = 0
  81              		@ frame_needed = 0, uses_anonymous_args = 0
  82              		@ link register save eliminated.
  83              	.L6:
 110:Src/stm32f4xx_it.c ****   /* USER CODE BEGIN MemoryManagement_IRQn 0 */
 111:Src/stm32f4xx_it.c **** 
 112:Src/stm32f4xx_it.c ****   /* USER CODE END MemoryManagement_IRQn 0 */
 113:Src/stm32f4xx_it.c ****   while (1)
  84              		.loc 1 113 3 discriminator 1 view .LVU9
 114:Src/stm32f4xx_it.c ****   {
 115:Src/stm32f4xx_it.c ****     /* USER CODE BEGIN W1_MemoryManagement_IRQn 0 */
 116:Src/stm32f4xx_it.c ****     /* USER CODE END W1_MemoryManagement_IRQn 0 */
 117:Src/stm32f4xx_it.c ****   }
  85              		.loc 1 117 3 discriminator 1 view .LVU10
 113:Src/stm32f4xx_it.c ****   {
  86              		.loc 1 113 9 discriminator 1 view .LVU11
  87 0000 FEE7     		b	.L6
  88              		.cfi_endproc
  89              	.LFE237:
  91              		.section	.text.BusFault_Handler,"ax",%progbits
  92              		.align	1
  93              		.global	BusFault_Handler
  94              		.syntax unified
  95              		.thumb
  96              		.thumb_func
  97              		.fpu fpv4-sp-d16
  99              	BusFault_Handler:
 100              	.LFB238:
 118:Src/stm32f4xx_it.c **** }
 119:Src/stm32f4xx_it.c **** 
 120:Src/stm32f4xx_it.c **** /**
 121:Src/stm32f4xx_it.c ****   * @brief This function handles Pre-fetch fault, memory access fault.
 122:Src/stm32f4xx_it.c ****   */
 123:Src/stm32f4xx_it.c **** void BusFault_Handler(void)
 124:Src/stm32f4xx_it.c **** {
 101              		.loc 1 124 1 view -0
 102              		.cfi_startproc
 103              		@ Volatile: function does not return.
 104              		@ args = 0, pretend = 0, frame = 0
 105              		@ frame_needed = 0, uses_anonymous_args = 0
 106              		@ link register save eliminated.
 107              	.L8:
 125:Src/stm32f4xx_it.c ****   /* USER CODE BEGIN BusFault_IRQn 0 */
ARM GAS  C:\Users\Andre\AppData\Local\Temp\ccdLW6tk.s 			page 5


 126:Src/stm32f4xx_it.c **** 
 127:Src/stm32f4xx_it.c ****   /* USER CODE END BusFault_IRQn 0 */
 128:Src/stm32f4xx_it.c ****   while (1)
 108              		.loc 1 128 3 discriminator 1 view .LVU13
 129:Src/stm32f4xx_it.c ****   {
 130:Src/stm32f4xx_it.c ****     /* USER CODE BEGIN W1_BusFault_IRQn 0 */
 131:Src/stm32f4xx_it.c ****     /* USER CODE END W1_BusFault_IRQn 0 */
 132:Src/stm32f4xx_it.c ****   }
 109              		.loc 1 132 3 discriminator 1 view .LVU14
 128:Src/stm32f4xx_it.c ****   {
 110              		.loc 1 128 9 discriminator 1 view .LVU15
 111 0000 FEE7     		b	.L8
 112              		.cfi_endproc
 113              	.LFE238:
 115              		.section	.text.UsageFault_Handler,"ax",%progbits
 116              		.align	1
 117              		.global	UsageFault_Handler
 118              		.syntax unified
 119              		.thumb
 120              		.thumb_func
 121              		.fpu fpv4-sp-d16
 123              	UsageFault_Handler:
 124              	.LFB239:
 133:Src/stm32f4xx_it.c **** }
 134:Src/stm32f4xx_it.c **** 
 135:Src/stm32f4xx_it.c **** /**
 136:Src/stm32f4xx_it.c ****   * @brief This function handles Undefined instruction or illegal state.
 137:Src/stm32f4xx_it.c ****   */
 138:Src/stm32f4xx_it.c **** void UsageFault_Handler(void)
 139:Src/stm32f4xx_it.c **** {
 125              		.loc 1 139 1 view -0
 126              		.cfi_startproc
 127              		@ Volatile: function does not return.
 128              		@ args = 0, pretend = 0, frame = 0
 129              		@ frame_needed = 0, uses_anonymous_args = 0
 130              		@ link register save eliminated.
 131              	.L10:
 140:Src/stm32f4xx_it.c ****   /* USER CODE BEGIN UsageFault_IRQn 0 */
 141:Src/stm32f4xx_it.c **** 
 142:Src/stm32f4xx_it.c ****   /* USER CODE END UsageFault_IRQn 0 */
 143:Src/stm32f4xx_it.c ****   while (1)
 132              		.loc 1 143 3 discriminator 1 view .LVU17
 144:Src/stm32f4xx_it.c ****   {
 145:Src/stm32f4xx_it.c ****     /* USER CODE BEGIN W1_UsageFault_IRQn 0 */
 146:Src/stm32f4xx_it.c ****     /* USER CODE END W1_UsageFault_IRQn 0 */
 147:Src/stm32f4xx_it.c ****   }
 133              		.loc 1 147 3 discriminator 1 view .LVU18
 143:Src/stm32f4xx_it.c ****   {
 134              		.loc 1 143 9 discriminator 1 view .LVU19
 135 0000 FEE7     		b	.L10
 136              		.cfi_endproc
 137              	.LFE239:
 139              		.section	.text.SVC_Handler,"ax",%progbits
 140              		.align	1
 141              		.global	SVC_Handler
 142              		.syntax unified
 143              		.thumb
ARM GAS  C:\Users\Andre\AppData\Local\Temp\ccdLW6tk.s 			page 6


 144              		.thumb_func
 145              		.fpu fpv4-sp-d16
 147              	SVC_Handler:
 148              	.LFB240:
 148:Src/stm32f4xx_it.c **** }
 149:Src/stm32f4xx_it.c **** 
 150:Src/stm32f4xx_it.c **** /**
 151:Src/stm32f4xx_it.c ****   * @brief This function handles System service call via SWI instruction.
 152:Src/stm32f4xx_it.c ****   */
 153:Src/stm32f4xx_it.c **** void SVC_Handler(void)
 154:Src/stm32f4xx_it.c **** {
 149              		.loc 1 154 1 view -0
 150              		.cfi_startproc
 151              		@ args = 0, pretend = 0, frame = 0
 152              		@ frame_needed = 0, uses_anonymous_args = 0
 153              		@ link register save eliminated.
 155:Src/stm32f4xx_it.c ****   /* USER CODE BEGIN SVCall_IRQn 0 */
 156:Src/stm32f4xx_it.c **** 
 157:Src/stm32f4xx_it.c ****   /* USER CODE END SVCall_IRQn 0 */
 158:Src/stm32f4xx_it.c ****   /* USER CODE BEGIN SVCall_IRQn 1 */
 159:Src/stm32f4xx_it.c **** 
 160:Src/stm32f4xx_it.c ****   /* USER CODE END SVCall_IRQn 1 */
 161:Src/stm32f4xx_it.c **** }
 154              		.loc 1 161 1 view .LVU21
 155 0000 7047     		bx	lr
 156              		.cfi_endproc
 157              	.LFE240:
 159              		.section	.text.DebugMon_Handler,"ax",%progbits
 160              		.align	1
 161              		.global	DebugMon_Handler
 162              		.syntax unified
 163              		.thumb
 164              		.thumb_func
 165              		.fpu fpv4-sp-d16
 167              	DebugMon_Handler:
 168              	.LFB241:
 162:Src/stm32f4xx_it.c **** 
 163:Src/stm32f4xx_it.c **** /**
 164:Src/stm32f4xx_it.c ****   * @brief This function handles Debug monitor.
 165:Src/stm32f4xx_it.c ****   */
 166:Src/stm32f4xx_it.c **** void DebugMon_Handler(void)
 167:Src/stm32f4xx_it.c **** {
 169              		.loc 1 167 1 view -0
 170              		.cfi_startproc
 171              		@ args = 0, pretend = 0, frame = 0
 172              		@ frame_needed = 0, uses_anonymous_args = 0
 173              		@ link register save eliminated.
 168:Src/stm32f4xx_it.c ****   /* USER CODE BEGIN DebugMonitor_IRQn 0 */
 169:Src/stm32f4xx_it.c **** 
 170:Src/stm32f4xx_it.c ****   /* USER CODE END DebugMonitor_IRQn 0 */
 171:Src/stm32f4xx_it.c ****   /* USER CODE BEGIN DebugMonitor_IRQn 1 */
 172:Src/stm32f4xx_it.c **** 
 173:Src/stm32f4xx_it.c ****   /* USER CODE END DebugMonitor_IRQn 1 */
 174:Src/stm32f4xx_it.c **** }
 174              		.loc 1 174 1 view .LVU23
 175 0000 7047     		bx	lr
 176              		.cfi_endproc
ARM GAS  C:\Users\Andre\AppData\Local\Temp\ccdLW6tk.s 			page 7


 177              	.LFE241:
 179              		.section	.text.PendSV_Handler,"ax",%progbits
 180              		.align	1
 181              		.global	PendSV_Handler
 182              		.syntax unified
 183              		.thumb
 184              		.thumb_func
 185              		.fpu fpv4-sp-d16
 187              	PendSV_Handler:
 188              	.LFB242:
 175:Src/stm32f4xx_it.c **** 
 176:Src/stm32f4xx_it.c **** /**
 177:Src/stm32f4xx_it.c ****   * @brief This function handles Pendable request for system service.
 178:Src/stm32f4xx_it.c ****   */
 179:Src/stm32f4xx_it.c **** void PendSV_Handler(void)
 180:Src/stm32f4xx_it.c **** {
 189              		.loc 1 180 1 view -0
 190              		.cfi_startproc
 191              		@ args = 0, pretend = 0, frame = 0
 192              		@ frame_needed = 0, uses_anonymous_args = 0
 193              		@ link register save eliminated.
 181:Src/stm32f4xx_it.c ****   /* USER CODE BEGIN PendSV_IRQn 0 */
 182:Src/stm32f4xx_it.c **** 
 183:Src/stm32f4xx_it.c ****   /* USER CODE END PendSV_IRQn 0 */
 184:Src/stm32f4xx_it.c ****   /* USER CODE BEGIN PendSV_IRQn 1 */
 185:Src/stm32f4xx_it.c **** 
 186:Src/stm32f4xx_it.c ****   /* USER CODE END PendSV_IRQn 1 */
 187:Src/stm32f4xx_it.c **** }
 194              		.loc 1 187 1 view .LVU25
 195 0000 7047     		bx	lr
 196              		.cfi_endproc
 197              	.LFE242:
 199              		.section	.text.SysTick_Handler,"ax",%progbits
 200              		.align	1
 201              		.global	SysTick_Handler
 202              		.syntax unified
 203              		.thumb
 204              		.thumb_func
 205              		.fpu fpv4-sp-d16
 207              	SysTick_Handler:
 208              	.LFB243:
 188:Src/stm32f4xx_it.c **** 
 189:Src/stm32f4xx_it.c **** /**
 190:Src/stm32f4xx_it.c ****   * @brief This function handles System tick timer.
 191:Src/stm32f4xx_it.c ****   */
 192:Src/stm32f4xx_it.c **** void SysTick_Handler(void)
 193:Src/stm32f4xx_it.c **** {
 209              		.loc 1 193 1 view -0
 210              		.cfi_startproc
 211              		@ args = 0, pretend = 0, frame = 0
 212              		@ frame_needed = 0, uses_anonymous_args = 0
 213 0000 08B5     		push	{r3, lr}
 214              	.LCFI0:
 215              		.cfi_def_cfa_offset 8
 216              		.cfi_offset 3, -8
 217              		.cfi_offset 14, -4
 194:Src/stm32f4xx_it.c ****   /* USER CODE BEGIN SysTick_IRQn 0 */
ARM GAS  C:\Users\Andre\AppData\Local\Temp\ccdLW6tk.s 			page 8


 195:Src/stm32f4xx_it.c **** 
 196:Src/stm32f4xx_it.c ****   /* USER CODE END SysTick_IRQn 0 */
 197:Src/stm32f4xx_it.c ****   HAL_IncTick();
 218              		.loc 1 197 3 view .LVU27
 219 0002 FFF7FEFF 		bl	HAL_IncTick
 220              	.LVL0:
 198:Src/stm32f4xx_it.c ****   /* USER CODE BEGIN SysTick_IRQn 1 */
 199:Src/stm32f4xx_it.c **** 
 200:Src/stm32f4xx_it.c ****   /* USER CODE END SysTick_IRQn 1 */
 201:Src/stm32f4xx_it.c **** }
 221              		.loc 1 201 1 is_stmt 0 view .LVU28
 222 0006 08BD     		pop	{r3, pc}
 223              		.cfi_endproc
 224              	.LFE243:
 226              		.global	__aeabi_f2d
 227              		.global	__aeabi_dmul
 228              		.global	__aeabi_d2f
 229              		.global	__aeabi_dsub
 230              		.global	__aeabi_ddiv
 231              		.global	__aeabi_dadd
 232              		.section	.text.TIM3_IRQHandler,"ax",%progbits
 233              		.align	1
 234              		.global	TIM3_IRQHandler
 235              		.syntax unified
 236              		.thumb
 237              		.thumb_func
 238              		.fpu fpv4-sp-d16
 240              	TIM3_IRQHandler:
 241              	.LFB244:
 202:Src/stm32f4xx_it.c **** 
 203:Src/stm32f4xx_it.c **** /******************************************************************************/
 204:Src/stm32f4xx_it.c **** /* STM32F4xx Peripheral Interrupt Handlers                                    */
 205:Src/stm32f4xx_it.c **** /* Add here the Interrupt Handlers for the used peripherals.                  */
 206:Src/stm32f4xx_it.c **** /* For the available peripheral interrupt handler names,                      */
 207:Src/stm32f4xx_it.c **** /* please refer to the startup file (startup_stm32f4xx.s).                    */
 208:Src/stm32f4xx_it.c **** /******************************************************************************/
 209:Src/stm32f4xx_it.c **** 
 210:Src/stm32f4xx_it.c **** /**
 211:Src/stm32f4xx_it.c ****   * @brief This function handles TIM3 global interrupt.
 212:Src/stm32f4xx_it.c ****   */
 213:Src/stm32f4xx_it.c **** void TIM3_IRQHandler(void)
 214:Src/stm32f4xx_it.c **** {
 242              		.loc 1 214 1 is_stmt 1 view -0
 243              		.cfi_startproc
 244              		@ args = 0, pretend = 0, frame = 0
 245              		@ frame_needed = 0, uses_anonymous_args = 0
 246 0000 10B5     		push	{r4, lr}
 247              	.LCFI1:
 248              		.cfi_def_cfa_offset 8
 249              		.cfi_offset 4, -8
 250              		.cfi_offset 14, -4
 215:Src/stm32f4xx_it.c ****   /* USER CODE BEGIN TIM3_IRQn 0 */
 216:Src/stm32f4xx_it.c ****   HAL_GPIO_TogglePin(GPIOA, GPIO_PIN_1);
 251              		.loc 1 216 3 view .LVU30
 252 0002 0221     		movs	r1, #2
 253 0004 2C48     		ldr	r0, .L20+24
 254 0006 FFF7FEFF 		bl	HAL_GPIO_TogglePin
ARM GAS  C:\Users\Andre\AppData\Local\Temp\ccdLW6tk.s 			page 9


 255              	.LVL1:
 217:Src/stm32f4xx_it.c ****   HAL_ADC_Start(&hadc1);
 256              		.loc 1 217 3 view .LVU31
 257 000a 2C4C     		ldr	r4, .L20+28
 258 000c 2046     		mov	r0, r4
 259 000e FFF7FEFF 		bl	HAL_ADC_Start
 260              	.LVL2:
 218:Src/stm32f4xx_it.c ****   if (HAL_ADC_PollForConversion(&hadc1, 100) == HAL_OK) {   // –û–∂–∏–¥–∞–Ω–∏–µ –∑–∞–≤–µ—Ä—à–µ–Ω–∏—
 261              		.loc 1 218 3 view .LVU32
 262              		.loc 1 218 7 is_stmt 0 view .LVU33
 263 0012 6421     		movs	r1, #100
 264 0014 2046     		mov	r0, r4
 265 0016 FFF7FEFF 		bl	HAL_ADC_PollForConversion
 266              	.LVL3:
 267              		.loc 1 218 6 view .LVU34
 268 001a 50B1     		cbz	r0, .L19
 269              	.L17:
 219:Src/stm32f4xx_it.c ****     Result = HAL_ADC_GetValue(&hadc1);                      // –°—á–∏—Ç—ã–≤–∞–Ω–∏–µ —Å –ê–¶–ü.
 220:Src/stm32f4xx_it.c ****     voltageADC = (float) Result / 4096 * Vref;              // –ù–∞–ø—Ä—è–∂–µ–Ω–∏–µ –≤ –≤–æ–ª—å—Ç–∞
 221:Src/stm32f4xx_it.c ****     temp = (voltageADC - tV_25) / tSlope + 25;              // –¢–µ–º–ø–µ—Ä–∞—Ç—É—Ä–∞ –≤ –≥—Ä–∞–¥—É
 222:Src/stm32f4xx_it.c ****     Result = (float) temp;
 223:Src/stm32f4xx_it.c ****     dataTransmit(0, Result);                                // –ü–µ—Ä–µ–¥–∞—á–∞ –¥–∞–Ω–Ω—ã—Ö Modbus
 224:Src/stm32f4xx_it.c ****   }
 225:Src/stm32f4xx_it.c ****   HAL_ADC_Stop(&hadc1); // –û—Å—Ç–∞–Ω–æ–≤–∫–∞ –ê–¶–ü.
 270              		.loc 1 225 3 is_stmt 1 view .LVU35
 271 001c 2748     		ldr	r0, .L20+28
 272 001e FFF7FEFF 		bl	HAL_ADC_Stop
 273              	.LVL4:
 226:Src/stm32f4xx_it.c ****   usSRegInBuf[2] += 1;
 274              		.loc 1 226 3 view .LVU36
 275              		.loc 1 226 18 is_stmt 0 view .LVU37
 276 0022 274A     		ldr	r2, .L20+32
 277 0024 9388     		ldrh	r3, [r2, #4]
 278 0026 0133     		adds	r3, r3, #1
 279 0028 9380     		strh	r3, [r2, #4]	@ movhi
 227:Src/stm32f4xx_it.c ****   /* USER CODE END TIM3_IRQn 0 */
 228:Src/stm32f4xx_it.c ****   HAL_TIM_IRQHandler(&htim3);
 280              		.loc 1 228 3 is_stmt 1 view .LVU38
 281 002a 2648     		ldr	r0, .L20+36
 282 002c FFF7FEFF 		bl	HAL_TIM_IRQHandler
 283              	.LVL5:
 229:Src/stm32f4xx_it.c ****   /* USER CODE BEGIN TIM3_IRQn 1 */
 230:Src/stm32f4xx_it.c **** 
 231:Src/stm32f4xx_it.c ****   /* USER CODE END TIM3_IRQn 1 */
 232:Src/stm32f4xx_it.c **** }
 284              		.loc 1 232 1 is_stmt 0 view .LVU39
 285 0030 10BD     		pop	{r4, pc}
 286              	.L19:
 219:Src/stm32f4xx_it.c ****     voltageADC = (float) Result / 4096 * Vref;              // –ù–∞–ø—Ä—è–∂–µ–Ω–∏–µ –≤ –≤–æ–ª—å—Ç–∞
 287              		.loc 1 219 5 is_stmt 1 view .LVU40
 219:Src/stm32f4xx_it.c ****     voltageADC = (float) Result / 4096 * Vref;              // –ù–∞–ø—Ä—è–∂–µ–Ω–∏–µ –≤ –≤–æ–ª—å—Ç–∞
 288              		.loc 1 219 14 is_stmt 0 view .LVU41
 289 0032 2046     		mov	r0, r4
 290 0034 FFF7FEFF 		bl	HAL_ADC_GetValue
 291              	.LVL6:
 292 0038 07EE900A 		vmov	s15, r0	@ int
 219:Src/stm32f4xx_it.c ****     voltageADC = (float) Result / 4096 * Vref;              // –ù–∞–ø—Ä—è–∂–µ–Ω–∏–µ –≤ –≤–æ–ª—å—Ç–∞
ARM GAS  C:\Users\Andre\AppData\Local\Temp\ccdLW6tk.s 			page 10


 293              		.loc 1 219 12 view .LVU42
 294 003c F8EE677A 		vcvt.f32.u32	s15, s15
 220:Src/stm32f4xx_it.c ****     temp = (voltageADC - tV_25) / tSlope + 25;              // –¢–µ–º–ø–µ—Ä–∞—Ç—É—Ä–∞ –≤ –≥—Ä–∞–¥—É
 295              		.loc 1 220 5 is_stmt 1 view .LVU43
 220:Src/stm32f4xx_it.c ****     temp = (voltageADC - tV_25) / tSlope + 25;              // –¢–µ–º–ø–µ—Ä–∞—Ç—É—Ä–∞ –≤ –≥—Ä–∞–¥—É
 296              		.loc 1 220 33 is_stmt 0 view .LVU44
 297 0040 9FED217A 		vldr.32	s14, .L20+40
 298 0044 67EE877A 		vmul.f32	s15, s15, s14
 299 0048 17EE900A 		vmov	r0, s15
 300 004c FFF7FEFF 		bl	__aeabi_f2d
 301              	.LVL7:
 220:Src/stm32f4xx_it.c ****     temp = (voltageADC - tV_25) / tSlope + 25;              // –¢–µ–º–ø–µ—Ä–∞—Ç—É—Ä–∞ –≤ –≥—Ä–∞–¥—É
 302              		.loc 1 220 40 view .LVU45
 303 0050 13A3     		adr	r3, .L20
 304 0052 D3E90023 		ldrd	r2, [r3]
 305 0056 FFF7FEFF 		bl	__aeabi_dmul
 306              	.LVL8:
 307 005a FFF7FEFF 		bl	__aeabi_d2f
 308              	.LVL9:
 220:Src/stm32f4xx_it.c ****     temp = (voltageADC - tV_25) / tSlope + 25;              // –¢–µ–º–ø–µ—Ä–∞—Ç—É—Ä–∞ –≤ –≥—Ä–∞–¥—É
 309              		.loc 1 220 16 view .LVU46
 310 005e 1B4B     		ldr	r3, .L20+44
 311 0060 1860     		str	r0, [r3]	@ float
 221:Src/stm32f4xx_it.c ****     Result = (float) temp;
 312              		.loc 1 221 5 is_stmt 1 view .LVU47
 221:Src/stm32f4xx_it.c ****     Result = (float) temp;
 313              		.loc 1 221 24 is_stmt 0 view .LVU48
 314 0062 FFF7FEFF 		bl	__aeabi_f2d
 315              	.LVL10:
 316 0066 10A3     		adr	r3, .L20+8
 317 0068 D3E90023 		ldrd	r2, [r3]
 318 006c FFF7FEFF 		bl	__aeabi_dsub
 319              	.LVL11:
 221:Src/stm32f4xx_it.c ****     Result = (float) temp;
 320              		.loc 1 221 33 view .LVU49
 321 0070 0FA3     		adr	r3, .L20+16
 322 0072 D3E90023 		ldrd	r2, [r3]
 323 0076 FFF7FEFF 		bl	__aeabi_ddiv
 324              	.LVL12:
 221:Src/stm32f4xx_it.c ****     Result = (float) temp;
 325              		.loc 1 221 42 view .LVU50
 326 007a 0022     		movs	r2, #0
 327 007c 144B     		ldr	r3, .L20+48
 328 007e FFF7FEFF 		bl	__aeabi_dadd
 329              	.LVL13:
 330 0082 FFF7FEFF 		bl	__aeabi_d2f
 331              	.LVL14:
 332 0086 00EE100A 		vmov	s0, r0
 221:Src/stm32f4xx_it.c ****     Result = (float) temp;
 333              		.loc 1 221 10 view .LVU51
 334 008a 124B     		ldr	r3, .L20+52
 335 008c 1860     		str	r0, [r3]	@ float
 222:Src/stm32f4xx_it.c ****     dataTransmit(0, Result);                                // –ü–µ—Ä–µ–¥–∞—á–∞ –¥–∞–Ω–Ω—ã—Ö Modbus
 336              		.loc 1 222 5 is_stmt 1 view .LVU52
 222:Src/stm32f4xx_it.c ****     dataTransmit(0, Result);                                // –ü–µ—Ä–µ–¥–∞—á–∞ –¥–∞–Ω–Ω—ã—Ö Modbus
 337              		.loc 1 222 12 is_stmt 0 view .LVU53
 338 008e 124B     		ldr	r3, .L20+56
ARM GAS  C:\Users\Andre\AppData\Local\Temp\ccdLW6tk.s 			page 11


 339 0090 1860     		str	r0, [r3]	@ float
 223:Src/stm32f4xx_it.c ****   }
 340              		.loc 1 223 5 is_stmt 1 view .LVU54
 341 0092 0020     		movs	r0, #0
 342 0094 FFF7FEFF 		bl	dataTransmit
 343              	.LVL15:
 344 0098 C0E7     		b	.L17
 345              	.L21:
 346 009a 00BFAFF3 		.align	3
 346      0080
 347              	.L20:
 348 00a0 66666666 		.word	1717986918
 349 00a4 66660A40 		.word	1074423398
 350 00a8 52B81E85 		.word	-2061584302
 351 00ac EB51E83F 		.word	1072189931
 352 00b0 7B14AE47 		.word	1202590843
 353 00b4 E17A643F 		.word	1063549665
 354 00b8 00000240 		.word	1073872896
 355 00bc 00000000 		.word	hadc1
 356 00c0 00000000 		.word	usSRegInBuf
 357 00c4 00000000 		.word	htim3
 358 00c8 00008039 		.word	964689920
 359 00cc 00000000 		.word	.LANCHOR0
 360 00d0 00003940 		.word	1077477376
 361 00d4 00000000 		.word	temp
 362 00d8 00000000 		.word	.LANCHOR1
 363              		.cfi_endproc
 364              	.LFE244:
 366              		.section	.text.TIM4_IRQHandler,"ax",%progbits
 367              		.align	1
 368              		.global	TIM4_IRQHandler
 369              		.syntax unified
 370              		.thumb
 371              		.thumb_func
 372              		.fpu fpv4-sp-d16
 374              	TIM4_IRQHandler:
 375              	.LFB245:
 233:Src/stm32f4xx_it.c **** 
 234:Src/stm32f4xx_it.c **** /**
 235:Src/stm32f4xx_it.c ****   * @brief This function handles TIM4 global interrupt.
 236:Src/stm32f4xx_it.c ****   */
 237:Src/stm32f4xx_it.c **** void TIM4_IRQHandler(void)
 238:Src/stm32f4xx_it.c **** {
 376              		.loc 1 238 1 view -0
 377              		.cfi_startproc
 378              		@ args = 0, pretend = 0, frame = 0
 379              		@ frame_needed = 0, uses_anonymous_args = 0
 380 0000 08B5     		push	{r3, lr}
 381              	.LCFI2:
 382              		.cfi_def_cfa_offset 8
 383              		.cfi_offset 3, -8
 384              		.cfi_offset 14, -4
 239:Src/stm32f4xx_it.c ****   /* USER CODE BEGIN TIM4_IRQn 0 */
 240:Src/stm32f4xx_it.c **** 
 241:Src/stm32f4xx_it.c ****   /* USER CODE END TIM4_IRQn 0 */
 242:Src/stm32f4xx_it.c ****   HAL_TIM_IRQHandler(&htim4);
 385              		.loc 1 242 3 view .LVU56
ARM GAS  C:\Users\Andre\AppData\Local\Temp\ccdLW6tk.s 			page 12


 386 0002 0248     		ldr	r0, .L24
 387 0004 FFF7FEFF 		bl	HAL_TIM_IRQHandler
 388              	.LVL16:
 243:Src/stm32f4xx_it.c ****   /* USER CODE BEGIN TIM4_IRQn 1 */
 244:Src/stm32f4xx_it.c **** 
 245:Src/stm32f4xx_it.c ****   /* USER CODE END TIM4_IRQn 1 */
 246:Src/stm32f4xx_it.c **** }
 389              		.loc 1 246 1 is_stmt 0 view .LVU57
 390 0008 08BD     		pop	{r3, pc}
 391              	.L25:
 392 000a 00BF     		.align	2
 393              	.L24:
 394 000c 00000000 		.word	htim4
 395              		.cfi_endproc
 396              	.LFE245:
 398              		.section	.text.USART1_IRQHandler,"ax",%progbits
 399              		.align	1
 400              		.global	USART1_IRQHandler
 401              		.syntax unified
 402              		.thumb
 403              		.thumb_func
 404              		.fpu fpv4-sp-d16
 406              	USART1_IRQHandler:
 407              	.LFB246:
 247:Src/stm32f4xx_it.c **** 
 248:Src/stm32f4xx_it.c **** /**
 249:Src/stm32f4xx_it.c ****   * @brief This function handles USART1 global interrupt.
 250:Src/stm32f4xx_it.c ****   */
 251:Src/stm32f4xx_it.c **** void USART1_IRQHandler(void)
 252:Src/stm32f4xx_it.c **** {
 408              		.loc 1 252 1 is_stmt 1 view -0
 409              		.cfi_startproc
 410              		@ args = 0, pretend = 0, frame = 0
 411              		@ frame_needed = 0, uses_anonymous_args = 0
 412 0000 08B5     		push	{r3, lr}
 413              	.LCFI3:
 414              		.cfi_def_cfa_offset 8
 415              		.cfi_offset 3, -8
 416              		.cfi_offset 14, -4
 253:Src/stm32f4xx_it.c ****   /* USER CODE BEGIN USART1_IRQn 0 */
 254:Src/stm32f4xx_it.c **** 
 255:Src/stm32f4xx_it.c ****   /* USER CODE END USART1_IRQn 0 */
 256:Src/stm32f4xx_it.c ****   HAL_UART_IRQHandler(&huart1);
 417              		.loc 1 256 3 view .LVU59
 418 0002 0248     		ldr	r0, .L28
 419 0004 FFF7FEFF 		bl	HAL_UART_IRQHandler
 420              	.LVL17:
 257:Src/stm32f4xx_it.c ****   /* USER CODE BEGIN USART1_IRQn 1 */
 258:Src/stm32f4xx_it.c **** 
 259:Src/stm32f4xx_it.c ****   /* USER CODE END USART1_IRQn 1 */
 260:Src/stm32f4xx_it.c **** }
 421              		.loc 1 260 1 is_stmt 0 view .LVU60
 422 0008 08BD     		pop	{r3, pc}
 423              	.L29:
 424 000a 00BF     		.align	2
 425              	.L28:
 426 000c 00000000 		.word	huart1
ARM GAS  C:\Users\Andre\AppData\Local\Temp\ccdLW6tk.s 			page 13


 427              		.cfi_endproc
 428              	.LFE246:
 430              		.section	.text.USART2_IRQHandler,"ax",%progbits
 431              		.align	1
 432              		.global	USART2_IRQHandler
 433              		.syntax unified
 434              		.thumb
 435              		.thumb_func
 436              		.fpu fpv4-sp-d16
 438              	USART2_IRQHandler:
 439              	.LFB247:
 261:Src/stm32f4xx_it.c **** 
 262:Src/stm32f4xx_it.c **** /**
 263:Src/stm32f4xx_it.c ****   * @brief This function handles USART2 global interrupt.
 264:Src/stm32f4xx_it.c ****   */
 265:Src/stm32f4xx_it.c **** void USART2_IRQHandler(void)
 266:Src/stm32f4xx_it.c **** {
 440              		.loc 1 266 1 is_stmt 1 view -0
 441              		.cfi_startproc
 442              		@ args = 0, pretend = 0, frame = 0
 443              		@ frame_needed = 0, uses_anonymous_args = 0
 444 0000 08B5     		push	{r3, lr}
 445              	.LCFI4:
 446              		.cfi_def_cfa_offset 8
 447              		.cfi_offset 3, -8
 448              		.cfi_offset 14, -4
 267:Src/stm32f4xx_it.c ****   /* USER CODE BEGIN USART2_IRQn 0 */
 268:Src/stm32f4xx_it.c **** 
 269:Src/stm32f4xx_it.c ****   /* USER CODE END USART2_IRQn 0 */
 270:Src/stm32f4xx_it.c ****   HAL_UART_IRQHandler(&huart2);
 449              		.loc 1 270 3 view .LVU62
 450 0002 0248     		ldr	r0, .L32
 451 0004 FFF7FEFF 		bl	HAL_UART_IRQHandler
 452              	.LVL18:
 271:Src/stm32f4xx_it.c ****   /* USER CODE BEGIN USART2_IRQn 1 */
 272:Src/stm32f4xx_it.c **** 
 273:Src/stm32f4xx_it.c ****   /* USER CODE END USART2_IRQn 1 */
 274:Src/stm32f4xx_it.c **** }
 453              		.loc 1 274 1 is_stmt 0 view .LVU63
 454 0008 08BD     		pop	{r3, pc}
 455              	.L33:
 456 000a 00BF     		.align	2
 457              	.L32:
 458 000c 00000000 		.word	huart2
 459              		.cfi_endproc
 460              	.LFE247:
 462              		.comm	temp,4,4
 463              		.global	voltageADC
 464              		.global	Result
 465              		.section	.bss.Result,"aw",%nobits
 466              		.align	2
 467              		.set	.LANCHOR1,. + 0
 470              	Result:
 471 0000 00000000 		.space	4
 472              		.section	.bss.voltageADC,"aw",%nobits
 473              		.align	2
 474              		.set	.LANCHOR0,. + 0
ARM GAS  C:\Users\Andre\AppData\Local\Temp\ccdLW6tk.s 			page 14


 477              	voltageADC:
 478 0000 00000000 		.space	4
 479              		.text
 480              	.Letext0:
 481              		.file 2 "c:\\vscodeproject\\software\\arm_gcc\\arm-none-eabi\\include\\machine\\_default_types.h"
 482              		.file 3 "c:\\vscodeproject\\software\\arm_gcc\\arm-none-eabi\\include\\sys\\_stdint.h"
 483              		.file 4 "Drivers/CMSIS/Include/core_cm4.h"
 484              		.file 5 "Drivers/CMSIS/Device/ST/STM32F4xx/Include/system_stm32f4xx.h"
 485              		.file 6 "Drivers/CMSIS/Device/ST/STM32F4xx/Include/stm32f407xx.h"
 486              		.file 7 "Drivers/CMSIS/Device/ST/STM32F4xx/Include/stm32f4xx.h"
 487              		.file 8 "Drivers/STM32F4xx_HAL_Driver/Inc/stm32f4xx_hal_def.h"
 488              		.file 9 "Drivers/STM32F4xx_HAL_Driver/Inc/stm32f4xx_hal_dma.h"
 489              		.file 10 "Drivers/STM32F4xx_HAL_Driver/Inc/stm32f4xx_hal_adc.h"
 490              		.file 11 "Drivers/STM32F4xx_HAL_Driver/Inc/stm32f4xx_hal_tim.h"
 491              		.file 12 "Drivers/STM32F4xx_HAL_Driver/Inc/stm32f4xx_hal_uart.h"
 492              		.file 13 "Drivers/STM32F4xx_HAL_Driver/Inc/stm32f4xx_hal.h"
 493              		.file 14 "c:\\vscodeproject\\software\\arm_gcc\\arm-none-eabi\\include\\sys\\lock.h"
 494              		.file 15 "c:\\vscodeproject\\software\\arm_gcc\\arm-none-eabi\\include\\sys\\_types.h"
 495              		.file 16 "c:\\vscodeproject\\software\\arm_gcc\\lib\\gcc\\arm-none-eabi\\9.2.1\\include\\stddef.h"
 496              		.file 17 "c:\\vscodeproject\\software\\arm_gcc\\arm-none-eabi\\include\\sys\\reent.h"
 497              		.file 18 "Drivers/FreeModbus/port/port.h"
 498              		.file 19 "Drivers/FreeModbus/include/mbport.h"
 499              		.file 20 "Drivers/STM32F4xx_HAL_Driver/Inc/stm32f4xx_hal_gpio.h"
 500              		.file 21 "Drivers/FreeModbus/ReceiveTransmit/ReceiveTransmit.h"
ARM GAS  C:\Users\Andre\AppData\Local\Temp\ccdLW6tk.s 			page 15


DEFINED SYMBOLS
                            *ABS*:0000000000000000 stm32f4xx_it.c
C:\Users\Andre\AppData\Local\Temp\ccdLW6tk.s:18     .text.NMI_Handler:0000000000000000 $t
C:\Users\Andre\AppData\Local\Temp\ccdLW6tk.s:26     .text.NMI_Handler:0000000000000000 NMI_Handler
C:\Users\Andre\AppData\Local\Temp\ccdLW6tk.s:44     .text.HardFault_Handler:0000000000000000 $t
C:\Users\Andre\AppData\Local\Temp\ccdLW6tk.s:51     .text.HardFault_Handler:0000000000000000 HardFault_Handler
C:\Users\Andre\AppData\Local\Temp\ccdLW6tk.s:68     .text.MemManage_Handler:0000000000000000 $t
C:\Users\Andre\AppData\Local\Temp\ccdLW6tk.s:75     .text.MemManage_Handler:0000000000000000 MemManage_Handler
C:\Users\Andre\AppData\Local\Temp\ccdLW6tk.s:92     .text.BusFault_Handler:0000000000000000 $t
C:\Users\Andre\AppData\Local\Temp\ccdLW6tk.s:99     .text.BusFault_Handler:0000000000000000 BusFault_Handler
C:\Users\Andre\AppData\Local\Temp\ccdLW6tk.s:116    .text.UsageFault_Handler:0000000000000000 $t
C:\Users\Andre\AppData\Local\Temp\ccdLW6tk.s:123    .text.UsageFault_Handler:0000000000000000 UsageFault_Handler
C:\Users\Andre\AppData\Local\Temp\ccdLW6tk.s:140    .text.SVC_Handler:0000000000000000 $t
C:\Users\Andre\AppData\Local\Temp\ccdLW6tk.s:147    .text.SVC_Handler:0000000000000000 SVC_Handler
C:\Users\Andre\AppData\Local\Temp\ccdLW6tk.s:160    .text.DebugMon_Handler:0000000000000000 $t
C:\Users\Andre\AppData\Local\Temp\ccdLW6tk.s:167    .text.DebugMon_Handler:0000000000000000 DebugMon_Handler
C:\Users\Andre\AppData\Local\Temp\ccdLW6tk.s:180    .text.PendSV_Handler:0000000000000000 $t
C:\Users\Andre\AppData\Local\Temp\ccdLW6tk.s:187    .text.PendSV_Handler:0000000000000000 PendSV_Handler
C:\Users\Andre\AppData\Local\Temp\ccdLW6tk.s:200    .text.SysTick_Handler:0000000000000000 $t
C:\Users\Andre\AppData\Local\Temp\ccdLW6tk.s:207    .text.SysTick_Handler:0000000000000000 SysTick_Handler
C:\Users\Andre\AppData\Local\Temp\ccdLW6tk.s:233    .text.TIM3_IRQHandler:0000000000000000 $t
C:\Users\Andre\AppData\Local\Temp\ccdLW6tk.s:240    .text.TIM3_IRQHandler:0000000000000000 TIM3_IRQHandler
C:\Users\Andre\AppData\Local\Temp\ccdLW6tk.s:348    .text.TIM3_IRQHandler:00000000000000a0 $d
                            *COM*:0000000000000004 temp
C:\Users\Andre\AppData\Local\Temp\ccdLW6tk.s:367    .text.TIM4_IRQHandler:0000000000000000 $t
C:\Users\Andre\AppData\Local\Temp\ccdLW6tk.s:374    .text.TIM4_IRQHandler:0000000000000000 TIM4_IRQHandler
C:\Users\Andre\AppData\Local\Temp\ccdLW6tk.s:394    .text.TIM4_IRQHandler:000000000000000c $d
C:\Users\Andre\AppData\Local\Temp\ccdLW6tk.s:399    .text.USART1_IRQHandler:0000000000000000 $t
C:\Users\Andre\AppData\Local\Temp\ccdLW6tk.s:406    .text.USART1_IRQHandler:0000000000000000 USART1_IRQHandler
C:\Users\Andre\AppData\Local\Temp\ccdLW6tk.s:426    .text.USART1_IRQHandler:000000000000000c $d
C:\Users\Andre\AppData\Local\Temp\ccdLW6tk.s:431    .text.USART2_IRQHandler:0000000000000000 $t
C:\Users\Andre\AppData\Local\Temp\ccdLW6tk.s:438    .text.USART2_IRQHandler:0000000000000000 USART2_IRQHandler
C:\Users\Andre\AppData\Local\Temp\ccdLW6tk.s:458    .text.USART2_IRQHandler:000000000000000c $d
C:\Users\Andre\AppData\Local\Temp\ccdLW6tk.s:477    .bss.voltageADC:0000000000000000 voltageADC
C:\Users\Andre\AppData\Local\Temp\ccdLW6tk.s:470    .bss.Result:0000000000000000 Result
C:\Users\Andre\AppData\Local\Temp\ccdLW6tk.s:466    .bss.Result:0000000000000000 $d
C:\Users\Andre\AppData\Local\Temp\ccdLW6tk.s:473    .bss.voltageADC:0000000000000000 $d

UNDEFINED SYMBOLS
HAL_IncTick
__aeabi_f2d
__aeabi_dmul
__aeabi_d2f
__aeabi_dsub
__aeabi_ddiv
__aeabi_dadd
HAL_GPIO_TogglePin
HAL_ADC_Start
HAL_ADC_PollForConversion
HAL_ADC_Stop
HAL_TIM_IRQHandler
HAL_ADC_GetValue
dataTransmit
hadc1
usSRegInBuf
htim3
htim4
ARM GAS  C:\Users\Andre\AppData\Local\Temp\ccdLW6tk.s 			page 16


HAL_UART_IRQHandler
huart1
huart2
