ARM GAS  C:\Users\Andre\AppData\Local\Temp\cc6DUQzQ.s 			page 1


   1              		.cpu cortex-m4
   2              		.eabi_attribute 27, 1
   3              		.eabi_attribute 28, 1
   4              		.eabi_attribute 20, 1
   5              		.eabi_attribute 21, 1
   6              		.eabi_attribute 23, 3
   7              		.eabi_attribute 24, 1
   8              		.eabi_attribute 25, 1
   9              		.eabi_attribute 26, 1
  10              		.eabi_attribute 30, 1
  11              		.eabi_attribute 34, 1
  12              		.eabi_attribute 18, 4
  13              		.file	"w25qxx.c"
  14              		.text
  15              	.Ltext0:
  16              		.cfi_sections	.debug_frame
  17              		.section	.text.W25qxx_Spi,"ax",%progbits
  18              		.align	1
  19              		.global	W25qxx_Spi
  20              		.arch armv7e-m
  21              		.syntax unified
  22              		.thumb
  23              		.thumb_func
  24              		.fpu fpv4-sp-d16
  26              	W25qxx_Spi:
  27              	.LVL0:
  28              	.LFB238:
  29              		.file 1 "Drivers/W25qxx/w25qxx.c"
   1:Drivers/W25qxx/w25qxx.c **** 
   2:Drivers/W25qxx/w25qxx.c **** #include "w25qxx.h"
   3:Drivers/W25qxx/w25qxx.c **** 
   4:Drivers/W25qxx/w25qxx.c **** #if (INIT_DEBUG == 1)
   5:Drivers/W25qxx/w25qxx.c **** #include "string.h"
   6:Drivers/W25qxx/w25qxx.c **** #include "stdio.h"
   7:Drivers/W25qxx/w25qxx.c **** char buf[64] = {0,};
   8:Drivers/W25qxx/w25qxx.c **** extern UART_HandleTypeDef huart1;
   9:Drivers/W25qxx/w25qxx.c **** #endif
  10:Drivers/W25qxx/w25qxx.c **** 
  11:Drivers/W25qxx/w25qxx.c **** 
  12:Drivers/W25qxx/w25qxx.c **** #define W25QXX_DUMMY_BYTE        0xA5
  13:Drivers/W25qxx/w25qxx.c **** 
  14:Drivers/W25qxx/w25qxx.c **** w25qxx_t w25qxx;
  15:Drivers/W25qxx/w25qxx.c **** 
  16:Drivers/W25qxx/w25qxx.c **** #if (_W25QXX_USE_FREERTOS == 1)
  17:Drivers/W25qxx/w25qxx.c **** #define	W25qxx_Delay(delay)		osDelay(delay)
  18:Drivers/W25qxx/w25qxx.c **** #include "cmsis_os.h"
  19:Drivers/W25qxx/w25qxx.c **** #else
  20:Drivers/W25qxx/w25qxx.c **** #define	W25qxx_Delay(delay)		HAL_Delay(delay)
  21:Drivers/W25qxx/w25qxx.c **** #endif
  22:Drivers/W25qxx/w25qxx.c **** 
  23:Drivers/W25qxx/w25qxx.c **** 
  24:Drivers/W25qxx/w25qxx.c **** 
  25:Drivers/W25qxx/w25qxx.c **** //#################################################################################################
  26:Drivers/W25qxx/w25qxx.c **** uint8_t	W25qxx_Spi(uint8_t	Data)
  27:Drivers/W25qxx/w25qxx.c **** {
  30              		.loc 1 27 1 view -0
  31              		.cfi_startproc
ARM GAS  C:\Users\Andre\AppData\Local\Temp\cc6DUQzQ.s 			page 2


  32              		@ args = 0, pretend = 0, frame = 16
  33              		@ frame_needed = 0, uses_anonymous_args = 0
  34              		.loc 1 27 1 is_stmt 0 view .LVU1
  35 0000 00B5     		push	{lr}
  36              	.LCFI0:
  37              		.cfi_def_cfa_offset 4
  38              		.cfi_offset 14, -4
  39 0002 87B0     		sub	sp, sp, #28
  40              	.LCFI1:
  41              		.cfi_def_cfa_offset 32
  42 0004 8DF80F00 		strb	r0, [sp, #15]
  28:Drivers/W25qxx/w25qxx.c **** 	uint8_t	ret;
  43              		.loc 1 28 2 is_stmt 1 view .LVU2
  29:Drivers/W25qxx/w25qxx.c **** 
  30:Drivers/W25qxx/w25qxx.c **** 	HAL_SPI_TransmitReceive(W25QXX_SPI_PTR, &Data, &ret, 1, 100); // spi2
  44              		.loc 1 30 2 view .LVU3
  45 0008 6423     		movs	r3, #100
  46 000a 0093     		str	r3, [sp]
  47 000c 0123     		movs	r3, #1
  48 000e 0DF11702 		add	r2, sp, #23
  49 0012 0DF10F01 		add	r1, sp, #15
  50 0016 0448     		ldr	r0, .L3
  51              	.LVL1:
  52              		.loc 1 30 2 is_stmt 0 view .LVU4
  53 0018 FFF7FEFF 		bl	HAL_SPI_TransmitReceive
  54              	.LVL2:
  31:Drivers/W25qxx/w25qxx.c **** 
  32:Drivers/W25qxx/w25qxx.c **** 
  33:Drivers/W25qxx/w25qxx.c **** 	/*while(!(W25QXX_SPI->SR & SPI_SR_TXE));
  34:Drivers/W25qxx/w25qxx.c **** 	W25QXX_SPI->DR = Data;
  35:Drivers/W25qxx/w25qxx.c **** 
  36:Drivers/W25qxx/w25qxx.c **** 	while(!(W25QXX_SPI->SR & SPI_SR_RXNE));
  37:Drivers/W25qxx/w25qxx.c **** 	ret = W25QXX_SPI->DR;*/
  38:Drivers/W25qxx/w25qxx.c **** 
  39:Drivers/W25qxx/w25qxx.c **** 	//while((W25QXX_SPI->SR & SPI_SR_BSY));
  40:Drivers/W25qxx/w25qxx.c **** 	//__HAL_SPI_CLEAR_OVRFLAG(&hspi2);
  41:Drivers/W25qxx/w25qxx.c **** 
  42:Drivers/W25qxx/w25qxx.c **** 	return ret;
  55              		.loc 1 42 2 is_stmt 1 view .LVU5
  43:Drivers/W25qxx/w25qxx.c **** }
  56              		.loc 1 43 1 is_stmt 0 view .LVU6
  57 001c 9DF81700 		ldrb	r0, [sp, #23]	@ zero_extendqisi2
  58 0020 07B0     		add	sp, sp, #28
  59              	.LCFI2:
  60              		.cfi_def_cfa_offset 4
  61              		@ sp needed
  62 0022 5DF804FB 		ldr	pc, [sp], #4
  63              	.L4:
  64 0026 00BF     		.align	2
  65              	.L3:
  66 0028 00000000 		.word	hspi1
  67              		.cfi_endproc
  68              	.LFE238:
  70              		.section	.text.W25qxx_ReadID,"ax",%progbits
  71              		.align	1
  72              		.global	W25qxx_ReadID
  73              		.syntax unified
ARM GAS  C:\Users\Andre\AppData\Local\Temp\cc6DUQzQ.s 			page 3


  74              		.thumb
  75              		.thumb_func
  76              		.fpu fpv4-sp-d16
  78              	W25qxx_ReadID:
  79              	.LFB239:
  44:Drivers/W25qxx/w25qxx.c **** 
  45:Drivers/W25qxx/w25qxx.c **** //#################################################################################################
  46:Drivers/W25qxx/w25qxx.c **** uint32_t W25qxx_ReadID(void)
  47:Drivers/W25qxx/w25qxx.c **** {
  80              		.loc 1 47 1 is_stmt 1 view -0
  81              		.cfi_startproc
  82              		@ args = 0, pretend = 0, frame = 0
  83              		@ frame_needed = 0, uses_anonymous_args = 0
  84 0000 F8B5     		push	{r3, r4, r5, r6, r7, lr}
  85              	.LCFI3:
  86              		.cfi_def_cfa_offset 24
  87              		.cfi_offset 3, -24
  88              		.cfi_offset 4, -20
  89              		.cfi_offset 5, -16
  90              		.cfi_offset 6, -12
  91              		.cfi_offset 7, -8
  92              		.cfi_offset 14, -4
  48:Drivers/W25qxx/w25qxx.c **** 	uint32_t Temp = 0, Temp0 = 0, Temp1 = 0, Temp2 = 0;
  93              		.loc 1 48 2 view .LVU8
  94              	.LVL3:
  49:Drivers/W25qxx/w25qxx.c **** 
  50:Drivers/W25qxx/w25qxx.c **** 	W25QFLASH_CS_SELECT;
  95              		.loc 1 50 2 view .LVU9
  96 0002 114F     		ldr	r7, .L7
  97 0004 0022     		movs	r2, #0
  98 0006 4FF40041 		mov	r1, #32768
  99 000a 3846     		mov	r0, r7
 100 000c FFF7FEFF 		bl	HAL_GPIO_WritePin
 101              	.LVL4:
  51:Drivers/W25qxx/w25qxx.c **** 
  52:Drivers/W25qxx/w25qxx.c **** 	W25qxx_Spi(W25_GET_JEDEC_ID);
 102              		.loc 1 52 2 view .LVU10
 103 0010 9F20     		movs	r0, #159
 104 0012 FFF7FEFF 		bl	W25qxx_Spi
 105              	.LVL5:
  53:Drivers/W25qxx/w25qxx.c **** 
  54:Drivers/W25qxx/w25qxx.c **** 	Temp0 = W25qxx_Spi(W25QXX_DUMMY_BYTE);
 106              		.loc 1 54 2 view .LVU11
 107              		.loc 1 54 10 is_stmt 0 view .LVU12
 108 0016 A520     		movs	r0, #165
 109 0018 FFF7FEFF 		bl	W25qxx_Spi
 110              	.LVL6:
 111 001c 0646     		mov	r6, r0
 112              	.LVL7:
  55:Drivers/W25qxx/w25qxx.c **** 	Temp1 = W25qxx_Spi(W25QXX_DUMMY_BYTE);
 113              		.loc 1 55 2 is_stmt 1 view .LVU13
 114              		.loc 1 55 10 is_stmt 0 view .LVU14
 115 001e A520     		movs	r0, #165
 116              	.LVL8:
 117              		.loc 1 55 10 view .LVU15
 118 0020 FFF7FEFF 		bl	W25qxx_Spi
 119              	.LVL9:
ARM GAS  C:\Users\Andre\AppData\Local\Temp\cc6DUQzQ.s 			page 4


 120 0024 0446     		mov	r4, r0
 121              	.LVL10:
  56:Drivers/W25qxx/w25qxx.c **** 	Temp2 = W25qxx_Spi(W25QXX_DUMMY_BYTE);
 122              		.loc 1 56 2 is_stmt 1 view .LVU16
 123              		.loc 1 56 10 is_stmt 0 view .LVU17
 124 0026 A520     		movs	r0, #165
 125              	.LVL11:
 126              		.loc 1 56 10 view .LVU18
 127 0028 FFF7FEFF 		bl	W25qxx_Spi
 128              	.LVL12:
 129 002c 0546     		mov	r5, r0
 130              	.LVL13:
  57:Drivers/W25qxx/w25qxx.c **** 
  58:Drivers/W25qxx/w25qxx.c **** 	W25QFLASH_CS_UNSELECT;
 131              		.loc 1 58 2 is_stmt 1 view .LVU19
 132 002e 0122     		movs	r2, #1
 133 0030 4FF40041 		mov	r1, #32768
 134 0034 3846     		mov	r0, r7
 135              	.LVL14:
 136              		.loc 1 58 2 is_stmt 0 view .LVU20
 137 0036 FFF7FEFF 		bl	HAL_GPIO_WritePin
 138              	.LVL15:
  59:Drivers/W25qxx/w25qxx.c **** 
  60:Drivers/W25qxx/w25qxx.c **** 	Temp = (Temp0 << 16) | (Temp1 << 8) | Temp2;
 139              		.loc 1 60 2 is_stmt 1 view .LVU21
 140              		.loc 1 60 32 is_stmt 0 view .LVU22
 141 003a 2402     		lsls	r4, r4, #8
 142              	.LVL16:
 143              		.loc 1 60 23 view .LVU23
 144 003c 44EA0644 		orr	r4, r4, r6, lsl #16
 145              	.LVL17:
  61:Drivers/W25qxx/w25qxx.c **** 
  62:Drivers/W25qxx/w25qxx.c **** 	return Temp;
 146              		.loc 1 62 2 is_stmt 1 view .LVU24
  63:Drivers/W25qxx/w25qxx.c **** }
 147              		.loc 1 63 1 is_stmt 0 view .LVU25
 148 0040 44EA0500 		orr	r0, r4, r5
 149              	.LVL18:
 150              		.loc 1 63 1 view .LVU26
 151 0044 F8BD     		pop	{r3, r4, r5, r6, r7, pc}
 152              	.LVL19:
 153              	.L8:
 154              		.loc 1 63 1 view .LVU27
 155 0046 00BF     		.align	2
 156              	.L7:
 157 0048 00000240 		.word	1073872896
 158              		.cfi_endproc
 159              	.LFE239:
 161              		.section	.text.W25qxx_WriteEnable,"ax",%progbits
 162              		.align	1
 163              		.global	W25qxx_WriteEnable
 164              		.syntax unified
 165              		.thumb
 166              		.thumb_func
 167              		.fpu fpv4-sp-d16
 169              	W25qxx_WriteEnable:
 170              	.LFB240:
ARM GAS  C:\Users\Andre\AppData\Local\Temp\cc6DUQzQ.s 			page 5


  64:Drivers/W25qxx/w25qxx.c **** 
  65:Drivers/W25qxx/w25qxx.c **** //#################################################################################################
  66:Drivers/W25qxx/w25qxx.c **** /*void W25qxx_ReadUniqID(void)
  67:Drivers/W25qxx/w25qxx.c **** {
  68:Drivers/W25qxx/w25qxx.c **** 	W25QFLASH_CS_SELECT;
  69:Drivers/W25qxx/w25qxx.c **** 	W25qxx_Spi(W25_READ_UNIQUE_ID);
  70:Drivers/W25qxx/w25qxx.c **** 
  71:Drivers/W25qxx/w25qxx.c **** 	for(uint8_t	i = 0; i < 4; i++)
  72:Drivers/W25qxx/w25qxx.c **** 		W25qxx_Spi(W25QXX_DUMMY_BYTE);
  73:Drivers/W25qxx/w25qxx.c **** 
  74:Drivers/W25qxx/w25qxx.c **** 	for(uint8_t	i = 0; i < 8; i++)
  75:Drivers/W25qxx/w25qxx.c **** 		w25qxx.UniqID[i] = W25qxx_Spi(W25QXX_DUMMY_BYTE);
  76:Drivers/W25qxx/w25qxx.c **** 
  77:Drivers/W25qxx/w25qxx.c **** 	W25QFLASH_CS_UNSELECT;
  78:Drivers/W25qxx/w25qxx.c **** }*/
  79:Drivers/W25qxx/w25qxx.c **** 
  80:Drivers/W25qxx/w25qxx.c **** //#################################################################################################
  81:Drivers/W25qxx/w25qxx.c **** void W25qxx_WriteEnable(void)
  82:Drivers/W25qxx/w25qxx.c **** {
 171              		.loc 1 82 1 is_stmt 1 view -0
 172              		.cfi_startproc
 173              		@ args = 0, pretend = 0, frame = 0
 174              		@ frame_needed = 0, uses_anonymous_args = 0
 175 0000 10B5     		push	{r4, lr}
 176              	.LCFI4:
 177              		.cfi_def_cfa_offset 8
 178              		.cfi_offset 4, -8
 179              		.cfi_offset 14, -4
  83:Drivers/W25qxx/w25qxx.c **** 	W25QFLASH_CS_SELECT;
 180              		.loc 1 83 2 view .LVU29
 181 0002 0A4C     		ldr	r4, .L11
 182 0004 0022     		movs	r2, #0
 183 0006 4FF40041 		mov	r1, #32768
 184 000a 2046     		mov	r0, r4
 185 000c FFF7FEFF 		bl	HAL_GPIO_WritePin
 186              	.LVL20:
  84:Drivers/W25qxx/w25qxx.c **** 	W25qxx_Spi(W25_WRITE_ENABLE);
 187              		.loc 1 84 2 view .LVU30
 188 0010 0620     		movs	r0, #6
 189 0012 FFF7FEFF 		bl	W25qxx_Spi
 190              	.LVL21:
  85:Drivers/W25qxx/w25qxx.c **** 	W25QFLASH_CS_UNSELECT;
 191              		.loc 1 85 2 view .LVU31
 192 0016 0122     		movs	r2, #1
 193 0018 4FF40041 		mov	r1, #32768
 194 001c 2046     		mov	r0, r4
 195 001e FFF7FEFF 		bl	HAL_GPIO_WritePin
 196              	.LVL22:
  86:Drivers/W25qxx/w25qxx.c **** 	W25qxx_Delay(1);
 197              		.loc 1 86 2 view .LVU32
 198 0022 0120     		movs	r0, #1
 199 0024 FFF7FEFF 		bl	HAL_Delay
 200              	.LVL23:
  87:Drivers/W25qxx/w25qxx.c **** }
 201              		.loc 1 87 1 is_stmt 0 view .LVU33
 202 0028 10BD     		pop	{r4, pc}
 203              	.L12:
ARM GAS  C:\Users\Andre\AppData\Local\Temp\cc6DUQzQ.s 			page 6


 204 002a 00BF     		.align	2
 205              	.L11:
 206 002c 00000240 		.word	1073872896
 207              		.cfi_endproc
 208              	.LFE240:
 210              		.section	.text.W25qxx_WriteDisable,"ax",%progbits
 211              		.align	1
 212              		.global	W25qxx_WriteDisable
 213              		.syntax unified
 214              		.thumb
 215              		.thumb_func
 216              		.fpu fpv4-sp-d16
 218              	W25qxx_WriteDisable:
 219              	.LFB241:
  88:Drivers/W25qxx/w25qxx.c **** 
  89:Drivers/W25qxx/w25qxx.c **** //#################################################################################################
  90:Drivers/W25qxx/w25qxx.c **** void W25qxx_WriteDisable(void)
  91:Drivers/W25qxx/w25qxx.c **** {
 220              		.loc 1 91 1 is_stmt 1 view -0
 221              		.cfi_startproc
 222              		@ args = 0, pretend = 0, frame = 0
 223              		@ frame_needed = 0, uses_anonymous_args = 0
 224 0000 10B5     		push	{r4, lr}
 225              	.LCFI5:
 226              		.cfi_def_cfa_offset 8
 227              		.cfi_offset 4, -8
 228              		.cfi_offset 14, -4
  92:Drivers/W25qxx/w25qxx.c **** 	W25QFLASH_CS_SELECT;
 229              		.loc 1 92 2 view .LVU35
 230 0002 0A4C     		ldr	r4, .L15
 231 0004 0022     		movs	r2, #0
 232 0006 4FF40041 		mov	r1, #32768
 233 000a 2046     		mov	r0, r4
 234 000c FFF7FEFF 		bl	HAL_GPIO_WritePin
 235              	.LVL24:
  93:Drivers/W25qxx/w25qxx.c **** 	W25qxx_Spi(W25_WRITE_DISABLE);
 236              		.loc 1 93 2 view .LVU36
 237 0010 0420     		movs	r0, #4
 238 0012 FFF7FEFF 		bl	W25qxx_Spi
 239              	.LVL25:
  94:Drivers/W25qxx/w25qxx.c **** 	W25QFLASH_CS_UNSELECT;
 240              		.loc 1 94 2 view .LVU37
 241 0016 0122     		movs	r2, #1
 242 0018 4FF40041 		mov	r1, #32768
 243 001c 2046     		mov	r0, r4
 244 001e FFF7FEFF 		bl	HAL_GPIO_WritePin
 245              	.LVL26:
  95:Drivers/W25qxx/w25qxx.c **** 	W25qxx_Delay(1);
 246              		.loc 1 95 2 view .LVU38
 247 0022 0120     		movs	r0, #1
 248 0024 FFF7FEFF 		bl	HAL_Delay
 249              	.LVL27:
  96:Drivers/W25qxx/w25qxx.c **** }
 250              		.loc 1 96 1 is_stmt 0 view .LVU39
 251 0028 10BD     		pop	{r4, pc}
 252              	.L16:
 253 002a 00BF     		.align	2
ARM GAS  C:\Users\Andre\AppData\Local\Temp\cc6DUQzQ.s 			page 7


 254              	.L15:
 255 002c 00000240 		.word	1073872896
 256              		.cfi_endproc
 257              	.LFE241:
 259              		.section	.text.W25qxx_WaitForWriteEnd,"ax",%progbits
 260              		.align	1
 261              		.global	W25qxx_WaitForWriteEnd
 262              		.syntax unified
 263              		.thumb
 264              		.thumb_func
 265              		.fpu fpv4-sp-d16
 267              	W25qxx_WaitForWriteEnd:
 268              	.LFB242:
  97:Drivers/W25qxx/w25qxx.c **** 
  98:Drivers/W25qxx/w25qxx.c **** //#################################################################################################
  99:Drivers/W25qxx/w25qxx.c **** /*uint8_t W25qxx_ReadStatusRegister(uint8_t SelectStatusRegister_1_2_3)
 100:Drivers/W25qxx/w25qxx.c **** {
 101:Drivers/W25qxx/w25qxx.c **** 	uint8_t	status=0;
 102:Drivers/W25qxx/w25qxx.c **** 	W25QFLASH_CS_SELECT;
 103:Drivers/W25qxx/w25qxx.c **** 
 104:Drivers/W25qxx/w25qxx.c **** 	if(SelectStatusRegister_1_2_3 == 1)
 105:Drivers/W25qxx/w25qxx.c **** 	{
 106:Drivers/W25qxx/w25qxx.c **** 		W25qxx_Spi(W25_READ_STATUS_1);
 107:Drivers/W25qxx/w25qxx.c **** 		status = W25qxx_Spi(W25QXX_DUMMY_BYTE);
 108:Drivers/W25qxx/w25qxx.c **** 		w25qxx.StatusRegister1 = status;
 109:Drivers/W25qxx/w25qxx.c **** 	}
 110:Drivers/W25qxx/w25qxx.c **** 	else if(SelectStatusRegister_1_2_3 == 2)
 111:Drivers/W25qxx/w25qxx.c **** 	{
 112:Drivers/W25qxx/w25qxx.c **** 		W25qxx_Spi(W25_READ_STATUS_2);
 113:Drivers/W25qxx/w25qxx.c **** 		status = W25qxx_Spi(W25QXX_DUMMY_BYTE);
 114:Drivers/W25qxx/w25qxx.c **** 		w25qxx.StatusRegister2 = status;
 115:Drivers/W25qxx/w25qxx.c **** 	}
 116:Drivers/W25qxx/w25qxx.c **** 	else
 117:Drivers/W25qxx/w25qxx.c **** 	{
 118:Drivers/W25qxx/w25qxx.c **** 		W25qxx_Spi(W25_READ_STATUS_3);
 119:Drivers/W25qxx/w25qxx.c **** 		status = W25qxx_Spi(W25QXX_DUMMY_BYTE);
 120:Drivers/W25qxx/w25qxx.c **** 		w25qxx.StatusRegister3 = status;
 121:Drivers/W25qxx/w25qxx.c **** 	}	
 122:Drivers/W25qxx/w25qxx.c **** 
 123:Drivers/W25qxx/w25qxx.c **** 	W25QFLASH_CS_UNSELECT;
 124:Drivers/W25qxx/w25qxx.c **** 
 125:Drivers/W25qxx/w25qxx.c **** 	return status;
 126:Drivers/W25qxx/w25qxx.c **** }*/
 127:Drivers/W25qxx/w25qxx.c **** 
 128:Drivers/W25qxx/w25qxx.c **** //#################################################################################################
 129:Drivers/W25qxx/w25qxx.c **** /*void W25qxx_WriteStatusRegister(uint8_t	SelectStatusRegister_1_2_3, uint8_t Data)
 130:Drivers/W25qxx/w25qxx.c **** {
 131:Drivers/W25qxx/w25qxx.c **** 	W25QFLASH_CS_SELECT;
 132:Drivers/W25qxx/w25qxx.c **** 
 133:Drivers/W25qxx/w25qxx.c **** 	if(SelectStatusRegister_1_2_3 == 1)
 134:Drivers/W25qxx/w25qxx.c **** 	{
 135:Drivers/W25qxx/w25qxx.c **** 		W25qxx_Spi(W25_WRITE_STATUS_1);
 136:Drivers/W25qxx/w25qxx.c **** 		w25qxx.StatusRegister1 = Data;
 137:Drivers/W25qxx/w25qxx.c **** 	}
 138:Drivers/W25qxx/w25qxx.c **** 	else if(SelectStatusRegister_1_2_3 == 2)
 139:Drivers/W25qxx/w25qxx.c **** 	{
 140:Drivers/W25qxx/w25qxx.c **** 		W25qxx_Spi(W25_WRITE_STATUS_2);
ARM GAS  C:\Users\Andre\AppData\Local\Temp\cc6DUQzQ.s 			page 8


 141:Drivers/W25qxx/w25qxx.c **** 		w25qxx.StatusRegister2 = Data;
 142:Drivers/W25qxx/w25qxx.c **** 	}
 143:Drivers/W25qxx/w25qxx.c **** 	else
 144:Drivers/W25qxx/w25qxx.c **** 	{
 145:Drivers/W25qxx/w25qxx.c **** 		W25qxx_Spi(W25_WRITE_STATUS_3);
 146:Drivers/W25qxx/w25qxx.c **** 		w25qxx.StatusRegister3 = Data;
 147:Drivers/W25qxx/w25qxx.c **** 	}
 148:Drivers/W25qxx/w25qxx.c **** 
 149:Drivers/W25qxx/w25qxx.c **** 	W25qxx_Spi(Data);
 150:Drivers/W25qxx/w25qxx.c **** 
 151:Drivers/W25qxx/w25qxx.c **** 	W25QFLASH_CS_UNSELECT;
 152:Drivers/W25qxx/w25qxx.c **** }*/
 153:Drivers/W25qxx/w25qxx.c **** 
 154:Drivers/W25qxx/w25qxx.c **** //#################################################################################################
 155:Drivers/W25qxx/w25qxx.c **** void W25qxx_WaitForWriteEnd(void)
 156:Drivers/W25qxx/w25qxx.c **** {
 269              		.loc 1 156 1 is_stmt 1 view -0
 270              		.cfi_startproc
 271              		@ args = 0, pretend = 0, frame = 0
 272              		@ frame_needed = 0, uses_anonymous_args = 0
 273 0000 10B5     		push	{r4, lr}
 274              	.LCFI6:
 275              		.cfi_def_cfa_offset 8
 276              		.cfi_offset 4, -8
 277              		.cfi_offset 14, -4
 157:Drivers/W25qxx/w25qxx.c **** 	W25qxx_Delay(1);
 278              		.loc 1 157 2 view .LVU41
 279 0002 0120     		movs	r0, #1
 280 0004 FFF7FEFF 		bl	HAL_Delay
 281              	.LVL28:
 158:Drivers/W25qxx/w25qxx.c **** 	W25QFLASH_CS_SELECT;
 282              		.loc 1 158 2 view .LVU42
 283 0008 0022     		movs	r2, #0
 284 000a 4FF40041 		mov	r1, #32768
 285 000e 0D48     		ldr	r0, .L20
 286 0010 FFF7FEFF 		bl	HAL_GPIO_WritePin
 287              	.LVL29:
 159:Drivers/W25qxx/w25qxx.c **** 	W25qxx_Spi(W25_READ_STATUS_1);
 288              		.loc 1 159 2 view .LVU43
 289 0014 0520     		movs	r0, #5
 290 0016 FFF7FEFF 		bl	W25qxx_Spi
 291              	.LVL30:
 292              	.L18:
 160:Drivers/W25qxx/w25qxx.c **** 
 161:Drivers/W25qxx/w25qxx.c **** 	do{
 293              		.loc 1 161 2 discriminator 1 view .LVU44
 162:Drivers/W25qxx/w25qxx.c **** 		w25qxx.StatusRegister1 = W25qxx_Spi(W25QXX_DUMMY_BYTE);
 294              		.loc 1 162 3 discriminator 1 view .LVU45
 295              		.loc 1 162 28 is_stmt 0 discriminator 1 view .LVU46
 296 001a A520     		movs	r0, #165
 297 001c FFF7FEFF 		bl	W25qxx_Spi
 298              	.LVL31:
 299              		.loc 1 162 26 discriminator 1 view .LVU47
 300 0020 094C     		ldr	r4, .L20+4
 301 0022 84F82400 		strb	r0, [r4, #36]
 163:Drivers/W25qxx/w25qxx.c **** 		W25qxx_Delay(1);
 302              		.loc 1 163 3 is_stmt 1 discriminator 1 view .LVU48
ARM GAS  C:\Users\Andre\AppData\Local\Temp\cc6DUQzQ.s 			page 9


 303 0026 0120     		movs	r0, #1
 304 0028 FFF7FEFF 		bl	HAL_Delay
 305              	.LVL32:
 164:Drivers/W25qxx/w25qxx.c **** 	}
 165:Drivers/W25qxx/w25qxx.c **** 	while((w25qxx.StatusRegister1 & 0x01) == 0x01);
 306              		.loc 1 165 7 discriminator 1 view .LVU49
 307              		.loc 1 165 15 is_stmt 0 discriminator 1 view .LVU50
 308 002c 94F82430 		ldrb	r3, [r4, #36]	@ zero_extendqisi2
 309              		.loc 1 165 2 discriminator 1 view .LVU51
 310 0030 13F0010F 		tst	r3, #1
 311 0034 F1D1     		bne	.L18
 166:Drivers/W25qxx/w25qxx.c **** 
 167:Drivers/W25qxx/w25qxx.c **** 	W25QFLASH_CS_UNSELECT;
 312              		.loc 1 167 2 is_stmt 1 view .LVU52
 313 0036 0122     		movs	r2, #1
 314 0038 4FF40041 		mov	r1, #32768
 315 003c 0148     		ldr	r0, .L20
 316 003e FFF7FEFF 		bl	HAL_GPIO_WritePin
 317              	.LVL33:
 168:Drivers/W25qxx/w25qxx.c **** }
 318              		.loc 1 168 1 is_stmt 0 view .LVU53
 319 0042 10BD     		pop	{r4, pc}
 320              	.L21:
 321              		.align	2
 322              	.L20:
 323 0044 00000240 		.word	1073872896
 324 0048 00000000 		.word	w25qxx
 325              		.cfi_endproc
 326              	.LFE242:
 328              		.section	.rodata.W25qxx_Init.str1.4,"aMS",%progbits,1
 329              		.align	2
 330              	.LC0:
 331 0000 496E6974 		.ascii	"Init Begin...\012\000"
 331      20426567 
 331      696E2E2E 
 331      2E0A00
 332 000f 00       		.align	2
 333              	.LC1:
 334 0010 49443A30 		.ascii	"ID:0x%lX\012\000"
 334      78256C58 
 334      0A00
 335 001a 0000     		.align	2
 336              	.LC2:
 337 001c 43686970 		.ascii	"Chip: w25q512\012\000"
 337      3A207732 
 337      35713531 
 337      320A00
 338 002b 00       		.align	2
 339              	.LC3:
 340 002c 43686970 		.ascii	"Chip: w25q256\012\000"
 340      3A207732 
 340      35713235 
 340      360A00
 341 003b 00       		.align	2
 342              	.LC4:
 343 003c 43686970 		.ascii	"Chip: w25q128\012\000"
 343      3A207732 
ARM GAS  C:\Users\Andre\AppData\Local\Temp\cc6DUQzQ.s 			page 10


 343      35713132 
 343      380A00
 344 004b 00       		.align	2
 345              	.LC5:
 346 004c 43686970 		.ascii	"Chip: w25q64\012\000"
 346      3A207732 
 346      35713634 
 346      0A00
 347 005a 0000     		.align	2
 348              	.LC6:
 349 005c 43686970 		.ascii	"Chip: w25q32\012\000"
 349      3A207732 
 349      35713332 
 349      0A00
 350 006a 0000     		.align	2
 351              	.LC7:
 352 006c 43686970 		.ascii	"Chip: w25q16\012\000"
 352      3A207732 
 352      35713136 
 352      0A00
 353 007a 0000     		.align	2
 354              	.LC8:
 355 007c 43686970 		.ascii	"Chip: w25q80\012\000"
 355      3A207732 
 355      35713830 
 355      0A00
 356 008a 0000     		.align	2
 357              	.LC9:
 358 008c 43686970 		.ascii	"Chip: w25q40\012\000"
 358      3A207732 
 358      35713430 
 358      0A00
 359 009a 0000     		.align	2
 360              	.LC10:
 361 009c 43686970 		.ascii	"Chip: w25q20\012\000"
 361      3A207732 
 361      35713230 
 361      0A00
 362 00aa 0000     		.align	2
 363              	.LC11:
 364 00ac 43686970 		.ascii	"Chip: w25q10\012\000"
 364      3A207732 
 364      35713130 
 364      0A00
 365 00ba 0000     		.align	2
 366              	.LC12:
 367 00bc 43686970 		.ascii	"Chip: w25x64\012\000"
 367      3A207732 
 367      35783634 
 367      0A00
 368 00ca 0000     		.align	2
 369              	.LC13:
 370 00cc 43686970 		.ascii	"Chip: w25x32\012\000"
 370      3A207732 
 370      35783332 
 370      0A00
 371 00da 0000     		.align	2
ARM GAS  C:\Users\Andre\AppData\Local\Temp\cc6DUQzQ.s 			page 11


 372              	.LC14:
 373 00dc 43686970 		.ascii	"Chip: w25x16\012\000"
 373      3A207732 
 373      35783136 
 373      0A00
 374 00ea 0000     		.align	2
 375              	.LC15:
 376 00ec 43686970 		.ascii	"Chip: w25x80\012\000"
 376      3A207732 
 376      35783830 
 376      0A00
 377 00fa 0000     		.align	2
 378              	.LC16:
 379 00fc 43686970 		.ascii	"Chip: w25x40\012\000"
 379      3A207732 
 379      35783430 
 379      0A00
 380 010a 0000     		.align	2
 381              	.LC17:
 382 010c 43686970 		.ascii	"Chip: w25x20\012\000"
 382      3A207732 
 382      35783230 
 382      0A00
 383 011a 0000     		.align	2
 384              	.LC18:
 385 011c 43686970 		.ascii	"Chip: w25x10\012\000"
 385      3A207732 
 385      35783130 
 385      0A00
 386 012a 0000     		.align	2
 387              	.LC19:
 388 012c 556E6B6E 		.ascii	"Unknown ID\012\000"
 388      6F776E20 
 388      49440A00 
 389              		.align	2
 390              	.LC20:
 391 0138 50616765 		.ascii	"Page Size: %d Bytes\012\000"
 391      2053697A 
 391      653A2025 
 391      64204279 
 391      7465730A 
 392 014d 000000   		.align	2
 393              	.LC21:
 394 0150 50616765 		.ascii	"Page Count: %lu\012\000"
 394      20436F75 
 394      6E743A20 
 394      256C750A 
 394      00
 395 0161 000000   		.align	2
 396              	.LC22:
 397 0164 53656374 		.ascii	"Sector Size: %lu Bytes\012\000"
 397      6F722053 
 397      697A653A 
 397      20256C75 
 397      20427974 
 398              		.align	2
 399              	.LC23:
ARM GAS  C:\Users\Andre\AppData\Local\Temp\cc6DUQzQ.s 			page 12


 400 017c 53656374 		.ascii	"Sector Count: %lu\012\000"
 400      6F722043 
 400      6F756E74 
 400      3A20256C 
 400      750A00
 401 018f 00       		.align	2
 402              	.LC24:
 403 0190 426C6F63 		.ascii	"Block Size: %lu Bytes\012\000"
 403      6B205369 
 403      7A653A20 
 403      256C7520 
 403      42797465 
 404 01a7 00       		.align	2
 405              	.LC25:
 406 01a8 426C6F63 		.ascii	"Block Count: %lu\012\000"
 406      6B20436F 
 406      756E743A 
 406      20256C75 
 406      0A00
 407 01ba 0000     		.align	2
 408              	.LC26:
 409 01bc 43617061 		.ascii	"Capacity: %lu KBytes\012\000"
 409      63697479 
 409      3A20256C 
 409      75204B42 
 409      79746573 
 410 01d2 0000     		.align	2
 411              	.LC27:
 412 01d4 496E6974 		.ascii	"Init Done\012\000"
 412      20446F6E 
 412      650A00
 413              		.section	.text.W25qxx_Init,"ax",%progbits
 414              		.align	1
 415              		.global	W25qxx_Init
 416              		.syntax unified
 417              		.thumb
 418              		.thumb_func
 419              		.fpu fpv4-sp-d16
 421              	W25qxx_Init:
 422              	.LFB243:
 169:Drivers/W25qxx/w25qxx.c **** 
 170:Drivers/W25qxx/w25qxx.c **** //#################################################################################################
 171:Drivers/W25qxx/w25qxx.c **** uint8_t W25qxx_Init(void)
 172:Drivers/W25qxx/w25qxx.c **** {
 423              		.loc 1 172 1 is_stmt 1 view -0
 424              		.cfi_startproc
 425              		@ args = 0, pretend = 0, frame = 0
 426              		@ frame_needed = 0, uses_anonymous_args = 0
 427 0000 70B5     		push	{r4, r5, r6, lr}
 428              	.LCFI7:
 429              		.cfi_def_cfa_offset 16
 430              		.cfi_offset 4, -16
 431              		.cfi_offset 5, -12
 432              		.cfi_offset 6, -8
 433              		.cfi_offset 14, -4
 173:Drivers/W25qxx/w25qxx.c **** 	w25qxx.Lock = 1;
 434              		.loc 1 173 2 view .LVU55
ARM GAS  C:\Users\Andre\AppData\Local\Temp\cc6DUQzQ.s 			page 13


 435              		.loc 1 173 14 is_stmt 0 view .LVU56
 436 0002 B94B     		ldr	r3, .L54
 437 0004 0122     		movs	r2, #1
 438 0006 83F82720 		strb	r2, [r3, #39]
 174:Drivers/W25qxx/w25qxx.c **** 	while(HAL_GetTick() < 100)
 439              		.loc 1 174 2 is_stmt 1 view .LVU57
 440              	.L23:
 441              		.loc 1 174 7 view .LVU58
 442              		.loc 1 174 8 is_stmt 0 view .LVU59
 443 000a FFF7FEFF 		bl	HAL_GetTick
 444              	.LVL34:
 445              		.loc 1 174 7 view .LVU60
 446 000e 6328     		cmp	r0, #99
 447 0010 03D8     		bhi	.L51
 175:Drivers/W25qxx/w25qxx.c **** 	W25qxx_Delay(1);
 448              		.loc 1 175 2 is_stmt 1 view .LVU61
 449 0012 0120     		movs	r0, #1
 450 0014 FFF7FEFF 		bl	HAL_Delay
 451              	.LVL35:
 452 0018 F7E7     		b	.L23
 453              	.L51:
 176:Drivers/W25qxx/w25qxx.c **** 
 177:Drivers/W25qxx/w25qxx.c **** 	W25QFLASH_CS_UNSELECT;
 454              		.loc 1 177 2 view .LVU62
 455 001a 0122     		movs	r2, #1
 456 001c 4FF40041 		mov	r1, #32768
 457 0020 B248     		ldr	r0, .L54+4
 458 0022 FFF7FEFF 		bl	HAL_GPIO_WritePin
 459              	.LVL36:
 178:Drivers/W25qxx/w25qxx.c **** 	W25qxx_Delay(100);
 460              		.loc 1 178 2 view .LVU63
 461 0026 6420     		movs	r0, #100
 462 0028 FFF7FEFF 		bl	HAL_Delay
 463              	.LVL37:
 179:Drivers/W25qxx/w25qxx.c **** 
 180:Drivers/W25qxx/w25qxx.c **** 	uint32_t id;
 464              		.loc 1 180 2 view .LVU64
 181:Drivers/W25qxx/w25qxx.c **** 
 182:Drivers/W25qxx/w25qxx.c **** 	#if (INIT_DEBUG == 1)
 183:Drivers/W25qxx/w25qxx.c **** 	HAL_UART_Transmit(DEBUG_UART, (uint8_t*)"Init Begin...\n", 14, 1000);
 465              		.loc 1 183 2 view .LVU65
 466 002c B04E     		ldr	r6, .L54+8
 467 002e 4FF47A73 		mov	r3, #1000
 468 0032 0E22     		movs	r2, #14
 469 0034 AF49     		ldr	r1, .L54+12
 470 0036 3046     		mov	r0, r6
 471 0038 FFF7FEFF 		bl	HAL_UART_Transmit
 472              	.LVL38:
 184:Drivers/W25qxx/w25qxx.c **** 	#endif
 185:Drivers/W25qxx/w25qxx.c **** 	
 186:Drivers/W25qxx/w25qxx.c **** 	id = W25qxx_ReadID();
 473              		.loc 1 186 2 view .LVU66
 474              		.loc 1 186 7 is_stmt 0 view .LVU67
 475 003c FFF7FEFF 		bl	W25qxx_ReadID
 476              	.LVL39:
 477 0040 0446     		mov	r4, r0
 478              	.LVL40:
ARM GAS  C:\Users\Andre\AppData\Local\Temp\cc6DUQzQ.s 			page 14


 187:Drivers/W25qxx/w25qxx.c **** 
 188:Drivers/W25qxx/w25qxx.c **** 	#if (INIT_DEBUG == 1)
 189:Drivers/W25qxx/w25qxx.c **** 	snprintf(buf, 64, "ID:0x%lX\n", id);
 479              		.loc 1 189 2 is_stmt 1 view .LVU68
 480 0042 AD4D     		ldr	r5, .L54+16
 481 0044 0346     		mov	r3, r0
 482 0046 AD4A     		ldr	r2, .L54+20
 483 0048 4021     		movs	r1, #64
 484 004a 2846     		mov	r0, r5
 485              	.LVL41:
 486              		.loc 1 189 2 is_stmt 0 view .LVU69
 487 004c FFF7FEFF 		bl	snprintf
 488              	.LVL42:
 190:Drivers/W25qxx/w25qxx.c **** 	HAL_UART_Transmit(DEBUG_UART, (uint8_t*)buf, strlen(buf), 1000);
 489              		.loc 1 190 2 is_stmt 1 view .LVU70
 490              		.loc 1 190 47 is_stmt 0 view .LVU71
 491 0050 2846     		mov	r0, r5
 492 0052 FFF7FEFF 		bl	strlen
 493              	.LVL43:
 494              		.loc 1 190 2 view .LVU72
 495 0056 4FF47A73 		mov	r3, #1000
 496 005a 82B2     		uxth	r2, r0
 497 005c 2946     		mov	r1, r5
 498 005e 3046     		mov	r0, r6
 499 0060 FFF7FEFF 		bl	HAL_UART_Transmit
 500              	.LVL44:
 191:Drivers/W25qxx/w25qxx.c **** 	#endif
 192:Drivers/W25qxx/w25qxx.c **** 
 193:Drivers/W25qxx/w25qxx.c **** 	switch(id & 0x0000FFFF)
 501              		.loc 1 193 2 is_stmt 1 view .LVU73
 502              		.loc 1 193 12 is_stmt 0 view .LVU74
 503 0064 A0B2     		uxth	r0, r4
 504              		.loc 1 193 2 view .LVU75
 505 0066 43F21703 		movw	r3, #12311
 506 006a 9842     		cmp	r0, r3
 507 006c 18D9     		bls	.L52
 508 006e 44F21A03 		movw	r3, #16410
 509 0072 9842     		cmp	r0, r3
 510 0074 18D8     		bhi	.L27
 511 0076 44F21103 		movw	r3, #16401
 512 007a 9842     		cmp	r0, r3
 513 007c 14D3     		bcc	.L27
 514 007e A0F58040 		sub	r0, r0, #16384
 515 0082 1138     		subs	r0, r0, #17
 516 0084 0928     		cmp	r0, #9
 517 0086 0FD8     		bhi	.L27
 518 0088 DFE810F0 		tbh	[pc, r0, lsl #1]
 519              	.L29:
 520 008c 5E01     		.2byte	(.L38-.L29)/2
 521 008e 2101     		.2byte	(.L37-.L29)/2
 522 0090 1401     		.2byte	(.L36-.L29)/2
 523 0092 0701     		.2byte	(.L35-.L29)/2
 524 0094 FA00     		.2byte	(.L34-.L29)/2
 525 0096 ED00     		.2byte	(.L33-.L29)/2
 526 0098 E000     		.2byte	(.L32-.L29)/2
 527 009a D200     		.2byte	(.L31-.L29)/2
 528 009c C400     		.2byte	(.L30-.L29)/2
ARM GAS  C:\Users\Andre\AppData\Local\Temp\cc6DUQzQ.s 			page 15


 529 009e 2800     		.2byte	(.L28-.L29)/2
 530              		.p2align 1
 531              	.L52:
 532 00a0 43F21103 		movw	r3, #12305
 533 00a4 9842     		cmp	r0, r3
 534 00a6 0BD2     		bcs	.L53
 535              	.L27:
 194:Drivers/W25qxx/w25qxx.c **** 	{
 195:Drivers/W25qxx/w25qxx.c **** 		case 0x401A:	// 	w25q512
 196:Drivers/W25qxx/w25qxx.c **** 			w25qxx.ID = W25Q512;
 197:Drivers/W25qxx/w25qxx.c **** 			w25qxx.BlockCount = 1024;
 198:Drivers/W25qxx/w25qxx.c **** 			#if (INIT_DEBUG == 1)
 199:Drivers/W25qxx/w25qxx.c **** 			HAL_UART_Transmit(DEBUG_UART, (uint8_t*)"Chip: w25q512\n", 14, 1000);
 200:Drivers/W25qxx/w25qxx.c **** 			#endif
 201:Drivers/W25qxx/w25qxx.c **** 		break;
 202:Drivers/W25qxx/w25qxx.c **** 
 203:Drivers/W25qxx/w25qxx.c **** 		case 0x4019:	// 	w25q256
 204:Drivers/W25qxx/w25qxx.c **** 			w25qxx.ID = W25Q256;
 205:Drivers/W25qxx/w25qxx.c **** 			w25qxx.BlockCount = 512;
 206:Drivers/W25qxx/w25qxx.c **** 			#if (INIT_DEBUG == 1)
 207:Drivers/W25qxx/w25qxx.c **** 			HAL_UART_Transmit(DEBUG_UART, (uint8_t*)"Chip: w25q256\n", 14, 1000);
 208:Drivers/W25qxx/w25qxx.c **** 			#endif
 209:Drivers/W25qxx/w25qxx.c **** 		break;
 210:Drivers/W25qxx/w25qxx.c **** 
 211:Drivers/W25qxx/w25qxx.c **** 		case 0x4018:	// 	w25q128
 212:Drivers/W25qxx/w25qxx.c **** 			w25qxx.ID = W25Q128;
 213:Drivers/W25qxx/w25qxx.c **** 			w25qxx.BlockCount = 256;
 214:Drivers/W25qxx/w25qxx.c **** 			#if (INIT_DEBUG == 1)
 215:Drivers/W25qxx/w25qxx.c **** 			HAL_UART_Transmit(DEBUG_UART, (uint8_t*)"Chip: w25q128\n", 14, 1000);
 216:Drivers/W25qxx/w25qxx.c **** 			#endif
 217:Drivers/W25qxx/w25qxx.c **** 		break;
 218:Drivers/W25qxx/w25qxx.c **** 
 219:Drivers/W25qxx/w25qxx.c **** 		case 0x4017:	//	w25q64
 220:Drivers/W25qxx/w25qxx.c **** 			w25qxx.ID = W25Q64;
 221:Drivers/W25qxx/w25qxx.c **** 			w25qxx.BlockCount = 128;
 222:Drivers/W25qxx/w25qxx.c **** 			#if (INIT_DEBUG == 1)
 223:Drivers/W25qxx/w25qxx.c **** 			HAL_UART_Transmit(DEBUG_UART, (uint8_t*)"Chip: w25q64\n", 13, 1000);
 224:Drivers/W25qxx/w25qxx.c **** 			#endif
 225:Drivers/W25qxx/w25qxx.c **** 		break;
 226:Drivers/W25qxx/w25qxx.c **** 
 227:Drivers/W25qxx/w25qxx.c **** 		case 0x4016:	//	w25q32
 228:Drivers/W25qxx/w25qxx.c **** 			w25qxx.ID = W25Q32;
 229:Drivers/W25qxx/w25qxx.c **** 			w25qxx.BlockCount = 64;
 230:Drivers/W25qxx/w25qxx.c **** 			#if (INIT_DEBUG == 1)
 231:Drivers/W25qxx/w25qxx.c **** 			HAL_UART_Transmit(DEBUG_UART, (uint8_t*)"Chip: w25q32\n", 13, 1000);
 232:Drivers/W25qxx/w25qxx.c **** 			#endif
 233:Drivers/W25qxx/w25qxx.c **** 		break;
 234:Drivers/W25qxx/w25qxx.c **** 
 235:Drivers/W25qxx/w25qxx.c **** 		case 0x4015:	//	w25q16
 236:Drivers/W25qxx/w25qxx.c **** 			w25qxx.ID = W25Q16;
 237:Drivers/W25qxx/w25qxx.c **** 			w25qxx.BlockCount = 32;
 238:Drivers/W25qxx/w25qxx.c **** 			#if (INIT_DEBUG == 1)
 239:Drivers/W25qxx/w25qxx.c **** 			HAL_UART_Transmit(DEBUG_UART, (uint8_t*)"Chip: w25q16\n", 13, 1000);
 240:Drivers/W25qxx/w25qxx.c **** 			#endif
 241:Drivers/W25qxx/w25qxx.c **** 		break;
 242:Drivers/W25qxx/w25qxx.c **** 
 243:Drivers/W25qxx/w25qxx.c **** 		case 0x4014:	//	w25q80
ARM GAS  C:\Users\Andre\AppData\Local\Temp\cc6DUQzQ.s 			page 16


 244:Drivers/W25qxx/w25qxx.c **** 			w25qxx.ID = W25Q80;
 245:Drivers/W25qxx/w25qxx.c **** 			w25qxx.BlockCount = 16;
 246:Drivers/W25qxx/w25qxx.c **** 			#if (INIT_DEBUG == 1)
 247:Drivers/W25qxx/w25qxx.c **** 			HAL_UART_Transmit(DEBUG_UART, (uint8_t*)"Chip: w25q80\n", 13, 1000);
 248:Drivers/W25qxx/w25qxx.c **** 			#endif
 249:Drivers/W25qxx/w25qxx.c **** 		break;
 250:Drivers/W25qxx/w25qxx.c **** 
 251:Drivers/W25qxx/w25qxx.c **** 		case 0x4013:	//	w25q40
 252:Drivers/W25qxx/w25qxx.c **** 			w25qxx.ID = W25Q40;
 253:Drivers/W25qxx/w25qxx.c **** 			w25qxx.BlockCount = 8;
 254:Drivers/W25qxx/w25qxx.c **** 			#if (INIT_DEBUG == 1)
 255:Drivers/W25qxx/w25qxx.c **** 			HAL_UART_Transmit(DEBUG_UART, (uint8_t*)"Chip: w25q40\n", 13, 1000);
 256:Drivers/W25qxx/w25qxx.c **** 			#endif
 257:Drivers/W25qxx/w25qxx.c **** 		break;
 258:Drivers/W25qxx/w25qxx.c **** 
 259:Drivers/W25qxx/w25qxx.c **** 		case 0x4012:	//	w25q20
 260:Drivers/W25qxx/w25qxx.c **** 			w25qxx.ID = W25Q20;
 261:Drivers/W25qxx/w25qxx.c **** 			w25qxx.BlockCount = 4;
 262:Drivers/W25qxx/w25qxx.c **** 			#if (INIT_DEBUG == 1)
 263:Drivers/W25qxx/w25qxx.c **** 			HAL_UART_Transmit(DEBUG_UART, (uint8_t*)"Chip: w25q20\n", 13, 1000);
 264:Drivers/W25qxx/w25qxx.c **** 			#endif
 265:Drivers/W25qxx/w25qxx.c **** 		break;
 266:Drivers/W25qxx/w25qxx.c **** 
 267:Drivers/W25qxx/w25qxx.c **** 		case 0x4011:	//	w25q10
 268:Drivers/W25qxx/w25qxx.c **** 			w25qxx.ID = W25Q10;
 269:Drivers/W25qxx/w25qxx.c **** 			w25qxx.BlockCount = 2;
 270:Drivers/W25qxx/w25qxx.c **** 			#if (INIT_DEBUG == 1)
 271:Drivers/W25qxx/w25qxx.c **** 			HAL_UART_Transmit(DEBUG_UART, (uint8_t*)"Chip: w25q10\n", 13, 1000);
 272:Drivers/W25qxx/w25qxx.c **** 			#endif
 273:Drivers/W25qxx/w25qxx.c **** 		break;
 274:Drivers/W25qxx/w25qxx.c **** 
 275:Drivers/W25qxx/w25qxx.c **** 		////////////////////////////////////////////////////////////////////////////////
 276:Drivers/W25qxx/w25qxx.c **** 
 277:Drivers/W25qxx/w25qxx.c **** 		case 0x3017:	//	w25x64
 278:Drivers/W25qxx/w25qxx.c **** 			//w25qxx.ID = W25Q64;
 279:Drivers/W25qxx/w25qxx.c **** 			w25qxx.BlockCount = 128;
 280:Drivers/W25qxx/w25qxx.c **** 			#if (INIT_DEBUG == 1)
 281:Drivers/W25qxx/w25qxx.c **** 			HAL_UART_Transmit(DEBUG_UART, (uint8_t*)"Chip: w25x64\n", 13, 1000);
 282:Drivers/W25qxx/w25qxx.c **** 			#endif
 283:Drivers/W25qxx/w25qxx.c **** 		break;
 284:Drivers/W25qxx/w25qxx.c **** 
 285:Drivers/W25qxx/w25qxx.c **** 		case 0x3016:	//	w25x32
 286:Drivers/W25qxx/w25qxx.c **** 			//w25qxx.ID = W25Q32;
 287:Drivers/W25qxx/w25qxx.c **** 			w25qxx.BlockCount = 64;
 288:Drivers/W25qxx/w25qxx.c **** 			#if (INIT_DEBUG == 1)
 289:Drivers/W25qxx/w25qxx.c **** 			HAL_UART_Transmit(DEBUG_UART, (uint8_t*)"Chip: w25x32\n", 13, 1000);
 290:Drivers/W25qxx/w25qxx.c **** 			#endif
 291:Drivers/W25qxx/w25qxx.c **** 		break;
 292:Drivers/W25qxx/w25qxx.c **** 
 293:Drivers/W25qxx/w25qxx.c **** 		case 0x3015:	//	w25q16
 294:Drivers/W25qxx/w25qxx.c **** 			//w25qxx.ID = W25Q16;
 295:Drivers/W25qxx/w25qxx.c **** 			w25qxx.BlockCount = 32;
 296:Drivers/W25qxx/w25qxx.c **** 			#if (INIT_DEBUG == 1)
 297:Drivers/W25qxx/w25qxx.c **** 			HAL_UART_Transmit(DEBUG_UART, (uint8_t*)"Chip: w25x16\n", 13, 1000);
 298:Drivers/W25qxx/w25qxx.c **** 			#endif
 299:Drivers/W25qxx/w25qxx.c **** 		break;
 300:Drivers/W25qxx/w25qxx.c **** 
ARM GAS  C:\Users\Andre\AppData\Local\Temp\cc6DUQzQ.s 			page 17


 301:Drivers/W25qxx/w25qxx.c **** 		////////////////////////////////////////////////////////////////////////////////
 302:Drivers/W25qxx/w25qxx.c **** 		case 0x3014:	//	w25x80
 303:Drivers/W25qxx/w25qxx.c **** 			//w25qxx.ID = W25Q80;
 304:Drivers/W25qxx/w25qxx.c **** 			w25qxx.BlockCount = 16;
 305:Drivers/W25qxx/w25qxx.c **** 			#if (INIT_DEBUG == 1)
 306:Drivers/W25qxx/w25qxx.c **** 			HAL_UART_Transmit(DEBUG_UART, (uint8_t*)"Chip: w25x80\n", 13, 1000);
 307:Drivers/W25qxx/w25qxx.c **** 			#endif
 308:Drivers/W25qxx/w25qxx.c **** 		break;
 309:Drivers/W25qxx/w25qxx.c **** 
 310:Drivers/W25qxx/w25qxx.c **** 		case 0x3013:	//	w25x40
 311:Drivers/W25qxx/w25qxx.c **** 			//w25qxx.ID = W25Q40;
 312:Drivers/W25qxx/w25qxx.c **** 			w25qxx.BlockCount = 8;
 313:Drivers/W25qxx/w25qxx.c **** 			#if (INIT_DEBUG == 1)
 314:Drivers/W25qxx/w25qxx.c **** 			HAL_UART_Transmit(DEBUG_UART, (uint8_t*)"Chip: w25x40\n", 13, 1000);
 315:Drivers/W25qxx/w25qxx.c **** 			#endif
 316:Drivers/W25qxx/w25qxx.c **** 		break;
 317:Drivers/W25qxx/w25qxx.c **** 
 318:Drivers/W25qxx/w25qxx.c **** 		case 0x3012:	//	w25x20
 319:Drivers/W25qxx/w25qxx.c **** 			//w25qxx.ID = W25Q20;
 320:Drivers/W25qxx/w25qxx.c **** 			w25qxx.BlockCount = 4;
 321:Drivers/W25qxx/w25qxx.c **** 			#if (INIT_DEBUG == 1)
 322:Drivers/W25qxx/w25qxx.c **** 			HAL_UART_Transmit(DEBUG_UART, (uint8_t*)"Chip: w25x20\n", 13, 1000);
 323:Drivers/W25qxx/w25qxx.c **** 			#endif
 324:Drivers/W25qxx/w25qxx.c **** 		break;
 325:Drivers/W25qxx/w25qxx.c **** 
 326:Drivers/W25qxx/w25qxx.c **** 		case 0x3011:	//	w25x10
 327:Drivers/W25qxx/w25qxx.c **** 			//w25qxx.ID = W25Q10;
 328:Drivers/W25qxx/w25qxx.c **** 			w25qxx.BlockCount = 2;
 329:Drivers/W25qxx/w25qxx.c **** 			#if (INIT_DEBUG == 1)
 330:Drivers/W25qxx/w25qxx.c **** 			HAL_UART_Transmit(DEBUG_UART, (uint8_t*)"Chip: w25x10\n", 13, 1000);
 331:Drivers/W25qxx/w25qxx.c **** 			#endif
 332:Drivers/W25qxx/w25qxx.c **** 		break;
 333:Drivers/W25qxx/w25qxx.c **** 
 334:Drivers/W25qxx/w25qxx.c **** 
 335:Drivers/W25qxx/w25qxx.c **** 
 336:Drivers/W25qxx/w25qxx.c **** 		default:
 337:Drivers/W25qxx/w25qxx.c **** 			#if (INIT_DEBUG == 1)
 338:Drivers/W25qxx/w25qxx.c **** 			HAL_UART_Transmit(DEBUG_UART, (uint8_t*)"Unknown ID\n", 11, 1000);
 536              		.loc 1 338 4 is_stmt 1 view .LVU76
 537 00a8 4FF47A73 		mov	r3, #1000
 538 00ac 0B22     		movs	r2, #11
 539 00ae 9449     		ldr	r1, .L54+24
 540 00b0 8F48     		ldr	r0, .L54+8
 541 00b2 FFF7FEFF 		bl	HAL_UART_Transmit
 542              	.LVL45:
 339:Drivers/W25qxx/w25qxx.c **** 			#endif
 340:Drivers/W25qxx/w25qxx.c **** 
 341:Drivers/W25qxx/w25qxx.c **** 			w25qxx.Lock = 0;
 543              		.loc 1 341 4 view .LVU77
 544              		.loc 1 341 16 is_stmt 0 view .LVU78
 545 00b6 0020     		movs	r0, #0
 546 00b8 8B4B     		ldr	r3, .L54
 547 00ba 83F82700 		strb	r0, [r3, #39]
 342:Drivers/W25qxx/w25qxx.c **** 			return 0;
 548              		.loc 1 342 4 is_stmt 1 view .LVU79
 549              		.loc 1 342 11 is_stmt 0 view .LVU80
 550 00be A8E0     		b	.L49
ARM GAS  C:\Users\Andre\AppData\Local\Temp\cc6DUQzQ.s 			page 18


 551              	.L53:
 552 00c0 A0F54050 		sub	r0, r0, #12288
 553 00c4 1138     		subs	r0, r0, #17
 554 00c6 0628     		cmp	r0, #6
 555 00c8 EED8     		bhi	.L27
 556 00ca DFE810F0 		tbh	[pc, r0, lsl #1]
 557              	.L40:
 558 00ce 8C01     		.2byte	(.L46-.L40)/2
 559 00d0 8101     		.2byte	(.L45-.L40)/2
 560 00d2 7601     		.2byte	(.L44-.L40)/2
 561 00d4 6B01     		.2byte	(.L43-.L40)/2
 562 00d6 6001     		.2byte	(.L42-.L40)/2
 563 00d8 5501     		.2byte	(.L41-.L40)/2
 564 00da 4A01     		.2byte	(.L39-.L40)/2
 565              		.p2align 1
 566              	.L28:
 196:Drivers/W25qxx/w25qxx.c **** 			w25qxx.BlockCount = 1024;
 567              		.loc 1 196 4 is_stmt 1 view .LVU81
 196:Drivers/W25qxx/w25qxx.c **** 			w25qxx.BlockCount = 1024;
 568              		.loc 1 196 14 is_stmt 0 view .LVU82
 569 00dc 824B     		ldr	r3, .L54
 570 00de 0A22     		movs	r2, #10
 571 00e0 1A70     		strb	r2, [r3]
 197:Drivers/W25qxx/w25qxx.c **** 			#if (INIT_DEBUG == 1)
 572              		.loc 1 197 4 is_stmt 1 view .LVU83
 197:Drivers/W25qxx/w25qxx.c **** 			#if (INIT_DEBUG == 1)
 573              		.loc 1 197 22 is_stmt 0 view .LVU84
 574 00e2 4FF48062 		mov	r2, #1024
 575 00e6 DA61     		str	r2, [r3, #28]
 199:Drivers/W25qxx/w25qxx.c **** 			#endif
 576              		.loc 1 199 4 is_stmt 1 view .LVU85
 577 00e8 4FF47A73 		mov	r3, #1000
 578 00ec 0E22     		movs	r2, #14
 579 00ee 8549     		ldr	r1, .L54+28
 580 00f0 7F48     		ldr	r0, .L54+8
 581 00f2 FFF7FEFF 		bl	HAL_UART_Transmit
 582              	.LVL46:
 201:Drivers/W25qxx/w25qxx.c **** 
 583              		.loc 1 201 3 view .LVU86
 584              	.L48:
 343:Drivers/W25qxx/w25qxx.c **** 	}
 344:Drivers/W25qxx/w25qxx.c **** 
 345:Drivers/W25qxx/w25qxx.c **** 
 346:Drivers/W25qxx/w25qxx.c **** 	w25qxx.PageSize = 256;
 585              		.loc 1 346 2 view .LVU87
 586              		.loc 1 346 18 is_stmt 0 view .LVU88
 587 00f6 7C4D     		ldr	r5, .L54
 588 00f8 4FF48073 		mov	r3, #256
 589 00fc 6B81     		strh	r3, [r5, #10]	@ movhi
 347:Drivers/W25qxx/w25qxx.c **** 	w25qxx.SectorSize = 0x1000;
 590              		.loc 1 347 2 is_stmt 1 view .LVU89
 591              		.loc 1 347 20 is_stmt 0 view .LVU90
 592 00fe 4FF48052 		mov	r2, #4096
 593 0102 2A61     		str	r2, [r5, #16]
 348:Drivers/W25qxx/w25qxx.c **** 	w25qxx.SectorCount = w25qxx.BlockCount * 16;
 594              		.loc 1 348 2 is_stmt 1 view .LVU91
 595              		.loc 1 348 29 is_stmt 0 view .LVU92
ARM GAS  C:\Users\Andre\AppData\Local\Temp\cc6DUQzQ.s 			page 19


 596 0104 EA69     		ldr	r2, [r5, #28]
 597              		.loc 1 348 41 view .LVU93
 598 0106 1101     		lsls	r1, r2, #4
 599              		.loc 1 348 21 view .LVU94
 600 0108 6961     		str	r1, [r5, #20]
 349:Drivers/W25qxx/w25qxx.c **** 	w25qxx.PageCount = (w25qxx.SectorCount * w25qxx.SectorSize) / w25qxx.PageSize;
 601              		.loc 1 349 2 is_stmt 1 view .LVU95
 602              		.loc 1 349 41 is_stmt 0 view .LVU96
 603 010a 1204     		lsls	r2, r2, #16
 604              		.loc 1 349 62 view .LVU97
 605 010c 110A     		lsrs	r1, r2, #8
 606              		.loc 1 349 19 view .LVU98
 607 010e E960     		str	r1, [r5, #12]
 350:Drivers/W25qxx/w25qxx.c **** 	w25qxx.BlockSize = w25qxx.SectorSize * 16;
 608              		.loc 1 350 2 is_stmt 1 view .LVU99
 609              		.loc 1 350 19 is_stmt 0 view .LVU100
 610 0110 4FF48031 		mov	r1, #65536
 611 0114 A961     		str	r1, [r5, #24]
 351:Drivers/W25qxx/w25qxx.c **** 	w25qxx.CapacityInKiloByte = (w25qxx.SectorCount * w25qxx.SectorSize) / 1024;
 612              		.loc 1 351 2 is_stmt 1 view .LVU101
 613              		.loc 1 351 71 is_stmt 0 view .LVU102
 614 0116 920A     		lsrs	r2, r2, #10
 615              		.loc 1 351 28 view .LVU103
 616 0118 2A62     		str	r2, [r5, #32]
 352:Drivers/W25qxx/w25qxx.c **** 
 353:Drivers/W25qxx/w25qxx.c **** 	//W25qxx_ReadUniqID();
 354:Drivers/W25qxx/w25qxx.c **** 	//W25qxx_ReadStatusRegister(1);
 355:Drivers/W25qxx/w25qxx.c **** 	//W25qxx_ReadStatusRegister(2);
 356:Drivers/W25qxx/w25qxx.c **** 	//W25qxx_ReadStatusRegister(3);
 357:Drivers/W25qxx/w25qxx.c **** 
 358:Drivers/W25qxx/w25qxx.c **** 	#if (INIT_DEBUG == 1)
 359:Drivers/W25qxx/w25qxx.c **** 	snprintf(buf, 64, "Page Size: %d Bytes\n", w25qxx.PageSize);
 617              		.loc 1 359 2 is_stmt 1 view .LVU104
 618 011a 774C     		ldr	r4, .L54+16
 619              	.LVL47:
 620              		.loc 1 359 2 is_stmt 0 view .LVU105
 621 011c 7A4A     		ldr	r2, .L54+32
 622 011e 4021     		movs	r1, #64
 623 0120 2046     		mov	r0, r4
 624 0122 FFF7FEFF 		bl	snprintf
 625              	.LVL48:
 360:Drivers/W25qxx/w25qxx.c **** 	HAL_UART_Transmit(DEBUG_UART, (uint8_t*)buf, strlen(buf), 1000);
 626              		.loc 1 360 2 is_stmt 1 view .LVU106
 627              		.loc 1 360 47 is_stmt 0 view .LVU107
 628 0126 2046     		mov	r0, r4
 629 0128 FFF7FEFF 		bl	strlen
 630              	.LVL49:
 631              		.loc 1 360 2 view .LVU108
 632 012c 704E     		ldr	r6, .L54+8
 633 012e 4FF47A73 		mov	r3, #1000
 634 0132 82B2     		uxth	r2, r0
 635 0134 2146     		mov	r1, r4
 636 0136 3046     		mov	r0, r6
 637 0138 FFF7FEFF 		bl	HAL_UART_Transmit
 638              	.LVL50:
 361:Drivers/W25qxx/w25qxx.c **** 
 362:Drivers/W25qxx/w25qxx.c **** 	snprintf(buf, 64, "Page Count: %lu\n", w25qxx.PageCount);
ARM GAS  C:\Users\Andre\AppData\Local\Temp\cc6DUQzQ.s 			page 20


 639              		.loc 1 362 2 is_stmt 1 view .LVU109
 640 013c EB68     		ldr	r3, [r5, #12]
 641 013e 734A     		ldr	r2, .L54+36
 642 0140 4021     		movs	r1, #64
 643 0142 2046     		mov	r0, r4
 644 0144 FFF7FEFF 		bl	snprintf
 645              	.LVL51:
 363:Drivers/W25qxx/w25qxx.c **** 	HAL_UART_Transmit(DEBUG_UART, (uint8_t*)buf, strlen(buf), 1000);
 646              		.loc 1 363 2 view .LVU110
 647              		.loc 1 363 47 is_stmt 0 view .LVU111
 648 0148 2046     		mov	r0, r4
 649 014a FFF7FEFF 		bl	strlen
 650              	.LVL52:
 651              		.loc 1 363 2 view .LVU112
 652 014e 4FF47A73 		mov	r3, #1000
 653 0152 82B2     		uxth	r2, r0
 654 0154 2146     		mov	r1, r4
 655 0156 3046     		mov	r0, r6
 656 0158 FFF7FEFF 		bl	HAL_UART_Transmit
 657              	.LVL53:
 364:Drivers/W25qxx/w25qxx.c **** 
 365:Drivers/W25qxx/w25qxx.c **** 	snprintf(buf, 64, "Sector Size: %lu Bytes\n", w25qxx.SectorSize);
 658              		.loc 1 365 2 is_stmt 1 view .LVU113
 659 015c 2B69     		ldr	r3, [r5, #16]
 660 015e 6C4A     		ldr	r2, .L54+40
 661 0160 4021     		movs	r1, #64
 662 0162 2046     		mov	r0, r4
 663 0164 FFF7FEFF 		bl	snprintf
 664              	.LVL54:
 366:Drivers/W25qxx/w25qxx.c **** 	HAL_UART_Transmit(DEBUG_UART, (uint8_t*)buf, strlen(buf), 1000);
 665              		.loc 1 366 2 view .LVU114
 666              		.loc 1 366 47 is_stmt 0 view .LVU115
 667 0168 2046     		mov	r0, r4
 668 016a FFF7FEFF 		bl	strlen
 669              	.LVL55:
 670              		.loc 1 366 2 view .LVU116
 671 016e 4FF47A73 		mov	r3, #1000
 672 0172 82B2     		uxth	r2, r0
 673 0174 2146     		mov	r1, r4
 674 0176 3046     		mov	r0, r6
 675 0178 FFF7FEFF 		bl	HAL_UART_Transmit
 676              	.LVL56:
 367:Drivers/W25qxx/w25qxx.c **** 
 368:Drivers/W25qxx/w25qxx.c **** 	snprintf(buf, 64, "Sector Count: %lu\n", w25qxx.SectorCount);
 677              		.loc 1 368 2 is_stmt 1 view .LVU117
 678 017c 6B69     		ldr	r3, [r5, #20]
 679 017e 654A     		ldr	r2, .L54+44
 680 0180 4021     		movs	r1, #64
 681 0182 2046     		mov	r0, r4
 682 0184 FFF7FEFF 		bl	snprintf
 683              	.LVL57:
 369:Drivers/W25qxx/w25qxx.c **** 	HAL_UART_Transmit(DEBUG_UART, (uint8_t*)buf, strlen(buf), 1000);
 684              		.loc 1 369 2 view .LVU118
 685              		.loc 1 369 47 is_stmt 0 view .LVU119
 686 0188 2046     		mov	r0, r4
 687 018a FFF7FEFF 		bl	strlen
 688              	.LVL58:
ARM GAS  C:\Users\Andre\AppData\Local\Temp\cc6DUQzQ.s 			page 21


 689              		.loc 1 369 2 view .LVU120
 690 018e 4FF47A73 		mov	r3, #1000
 691 0192 82B2     		uxth	r2, r0
 692 0194 2146     		mov	r1, r4
 693 0196 3046     		mov	r0, r6
 694 0198 FFF7FEFF 		bl	HAL_UART_Transmit
 695              	.LVL59:
 370:Drivers/W25qxx/w25qxx.c **** 
 371:Drivers/W25qxx/w25qxx.c **** 	snprintf(buf, 64, "Block Size: %lu Bytes\n", w25qxx.BlockSize);
 696              		.loc 1 371 2 is_stmt 1 view .LVU121
 697 019c AB69     		ldr	r3, [r5, #24]
 698 019e 5E4A     		ldr	r2, .L54+48
 699 01a0 4021     		movs	r1, #64
 700 01a2 2046     		mov	r0, r4
 701 01a4 FFF7FEFF 		bl	snprintf
 702              	.LVL60:
 372:Drivers/W25qxx/w25qxx.c **** 	HAL_UART_Transmit(DEBUG_UART, (uint8_t*)buf, strlen(buf), 1000);
 703              		.loc 1 372 2 view .LVU122
 704              		.loc 1 372 47 is_stmt 0 view .LVU123
 705 01a8 2046     		mov	r0, r4
 706 01aa FFF7FEFF 		bl	strlen
 707              	.LVL61:
 708              		.loc 1 372 2 view .LVU124
 709 01ae 4FF47A73 		mov	r3, #1000
 710 01b2 82B2     		uxth	r2, r0
 711 01b4 2146     		mov	r1, r4
 712 01b6 3046     		mov	r0, r6
 713 01b8 FFF7FEFF 		bl	HAL_UART_Transmit
 714              	.LVL62:
 373:Drivers/W25qxx/w25qxx.c **** 
 374:Drivers/W25qxx/w25qxx.c **** 	snprintf(buf, 64, "Block Count: %lu\n", w25qxx.BlockCount);
 715              		.loc 1 374 2 is_stmt 1 view .LVU125
 716 01bc EB69     		ldr	r3, [r5, #28]
 717 01be 574A     		ldr	r2, .L54+52
 718 01c0 4021     		movs	r1, #64
 719 01c2 2046     		mov	r0, r4
 720 01c4 FFF7FEFF 		bl	snprintf
 721              	.LVL63:
 375:Drivers/W25qxx/w25qxx.c **** 	HAL_UART_Transmit(DEBUG_UART, (uint8_t*)buf, strlen(buf), 1000);
 722              		.loc 1 375 2 view .LVU126
 723              		.loc 1 375 47 is_stmt 0 view .LVU127
 724 01c8 2046     		mov	r0, r4
 725 01ca FFF7FEFF 		bl	strlen
 726              	.LVL64:
 727              		.loc 1 375 2 view .LVU128
 728 01ce 4FF47A73 		mov	r3, #1000
 729 01d2 82B2     		uxth	r2, r0
 730 01d4 2146     		mov	r1, r4
 731 01d6 3046     		mov	r0, r6
 732 01d8 FFF7FEFF 		bl	HAL_UART_Transmit
 733              	.LVL65:
 376:Drivers/W25qxx/w25qxx.c **** 
 377:Drivers/W25qxx/w25qxx.c **** 	snprintf(buf, 64, "Capacity: %lu KBytes\n", w25qxx.CapacityInKiloByte);
 734              		.loc 1 377 2 is_stmt 1 view .LVU129
 735 01dc 2B6A     		ldr	r3, [r5, #32]
 736 01de 504A     		ldr	r2, .L54+56
 737 01e0 4021     		movs	r1, #64
ARM GAS  C:\Users\Andre\AppData\Local\Temp\cc6DUQzQ.s 			page 22


 738 01e2 2046     		mov	r0, r4
 739 01e4 FFF7FEFF 		bl	snprintf
 740              	.LVL66:
 378:Drivers/W25qxx/w25qxx.c **** 	HAL_UART_Transmit(DEBUG_UART, (uint8_t*)buf, strlen(buf), 1000);
 741              		.loc 1 378 2 view .LVU130
 742              		.loc 1 378 47 is_stmt 0 view .LVU131
 743 01e8 2046     		mov	r0, r4
 744 01ea FFF7FEFF 		bl	strlen
 745              	.LVL67:
 746              		.loc 1 378 2 view .LVU132
 747 01ee 4FF47A73 		mov	r3, #1000
 748 01f2 82B2     		uxth	r2, r0
 749 01f4 2146     		mov	r1, r4
 750 01f6 3046     		mov	r0, r6
 751 01f8 FFF7FEFF 		bl	HAL_UART_Transmit
 752              	.LVL68:
 379:Drivers/W25qxx/w25qxx.c **** 
 380:Drivers/W25qxx/w25qxx.c **** 	HAL_UART_Transmit(DEBUG_UART, (uint8_t*)"Init Done\n", 10, 1000);
 753              		.loc 1 380 2 is_stmt 1 view .LVU133
 754 01fc 4FF47A73 		mov	r3, #1000
 755 0200 0A22     		movs	r2, #10
 756 0202 4849     		ldr	r1, .L54+60
 757 0204 3046     		mov	r0, r6
 758 0206 FFF7FEFF 		bl	HAL_UART_Transmit
 759              	.LVL69:
 381:Drivers/W25qxx/w25qxx.c **** 	#endif
 382:Drivers/W25qxx/w25qxx.c **** 
 383:Drivers/W25qxx/w25qxx.c **** 	w25qxx.Lock = 0;
 760              		.loc 1 383 2 view .LVU134
 761              		.loc 1 383 14 is_stmt 0 view .LVU135
 762 020a 0023     		movs	r3, #0
 763 020c 85F82730 		strb	r3, [r5, #39]
 384:Drivers/W25qxx/w25qxx.c **** 	return 1;
 764              		.loc 1 384 2 is_stmt 1 view .LVU136
 765              		.loc 1 384 9 is_stmt 0 view .LVU137
 766 0210 0120     		movs	r0, #1
 767              	.L49:
 385:Drivers/W25qxx/w25qxx.c **** }	
 768              		.loc 1 385 1 view .LVU138
 769 0212 70BD     		pop	{r4, r5, r6, pc}
 770              	.LVL70:
 771              	.L30:
 204:Drivers/W25qxx/w25qxx.c **** 			w25qxx.BlockCount = 512;
 772              		.loc 1 204 4 is_stmt 1 view .LVU139
 204:Drivers/W25qxx/w25qxx.c **** 			w25qxx.BlockCount = 512;
 773              		.loc 1 204 14 is_stmt 0 view .LVU140
 774 0214 344B     		ldr	r3, .L54
 775 0216 0922     		movs	r2, #9
 776 0218 1A70     		strb	r2, [r3]
 205:Drivers/W25qxx/w25qxx.c **** 			#if (INIT_DEBUG == 1)
 777              		.loc 1 205 4 is_stmt 1 view .LVU141
 205:Drivers/W25qxx/w25qxx.c **** 			#if (INIT_DEBUG == 1)
 778              		.loc 1 205 22 is_stmt 0 view .LVU142
 779 021a 4FF40072 		mov	r2, #512
 780 021e DA61     		str	r2, [r3, #28]
 207:Drivers/W25qxx/w25qxx.c **** 			#endif
 781              		.loc 1 207 4 is_stmt 1 view .LVU143
ARM GAS  C:\Users\Andre\AppData\Local\Temp\cc6DUQzQ.s 			page 23


 782 0220 4FF47A73 		mov	r3, #1000
 783 0224 0E22     		movs	r2, #14
 784 0226 4049     		ldr	r1, .L54+64
 785 0228 3148     		ldr	r0, .L54+8
 786 022a FFF7FEFF 		bl	HAL_UART_Transmit
 787              	.LVL71:
 209:Drivers/W25qxx/w25qxx.c **** 
 788              		.loc 1 209 3 view .LVU144
 789 022e 62E7     		b	.L48
 790              	.L31:
 212:Drivers/W25qxx/w25qxx.c **** 			w25qxx.BlockCount = 256;
 791              		.loc 1 212 4 view .LVU145
 212:Drivers/W25qxx/w25qxx.c **** 			w25qxx.BlockCount = 256;
 792              		.loc 1 212 14 is_stmt 0 view .LVU146
 793 0230 2D4B     		ldr	r3, .L54
 794 0232 0822     		movs	r2, #8
 795 0234 1A70     		strb	r2, [r3]
 213:Drivers/W25qxx/w25qxx.c **** 			#if (INIT_DEBUG == 1)
 796              		.loc 1 213 4 is_stmt 1 view .LVU147
 213:Drivers/W25qxx/w25qxx.c **** 			#if (INIT_DEBUG == 1)
 797              		.loc 1 213 22 is_stmt 0 view .LVU148
 798 0236 4FF48072 		mov	r2, #256
 799 023a DA61     		str	r2, [r3, #28]
 215:Drivers/W25qxx/w25qxx.c **** 			#endif
 800              		.loc 1 215 4 is_stmt 1 view .LVU149
 801 023c 4FF47A73 		mov	r3, #1000
 802 0240 0E22     		movs	r2, #14
 803 0242 3A49     		ldr	r1, .L54+68
 804 0244 2A48     		ldr	r0, .L54+8
 805 0246 FFF7FEFF 		bl	HAL_UART_Transmit
 806              	.LVL72:
 217:Drivers/W25qxx/w25qxx.c **** 
 807              		.loc 1 217 3 view .LVU150
 808 024a 54E7     		b	.L48
 809              	.L32:
 220:Drivers/W25qxx/w25qxx.c **** 			w25qxx.BlockCount = 128;
 810              		.loc 1 220 4 view .LVU151
 220:Drivers/W25qxx/w25qxx.c **** 			w25qxx.BlockCount = 128;
 811              		.loc 1 220 14 is_stmt 0 view .LVU152
 812 024c 264B     		ldr	r3, .L54
 813 024e 0722     		movs	r2, #7
 814 0250 1A70     		strb	r2, [r3]
 221:Drivers/W25qxx/w25qxx.c **** 			#if (INIT_DEBUG == 1)
 815              		.loc 1 221 4 is_stmt 1 view .LVU153
 221:Drivers/W25qxx/w25qxx.c **** 			#if (INIT_DEBUG == 1)
 816              		.loc 1 221 22 is_stmt 0 view .LVU154
 817 0252 8022     		movs	r2, #128
 818 0254 DA61     		str	r2, [r3, #28]
 223:Drivers/W25qxx/w25qxx.c **** 			#endif
 819              		.loc 1 223 4 is_stmt 1 view .LVU155
 820 0256 4FF47A73 		mov	r3, #1000
 821 025a 0D22     		movs	r2, #13
 822 025c 3449     		ldr	r1, .L54+72
 823 025e 2448     		ldr	r0, .L54+8
 824 0260 FFF7FEFF 		bl	HAL_UART_Transmit
 825              	.LVL73:
 225:Drivers/W25qxx/w25qxx.c **** 
ARM GAS  C:\Users\Andre\AppData\Local\Temp\cc6DUQzQ.s 			page 24


 826              		.loc 1 225 3 view .LVU156
 827 0264 47E7     		b	.L48
 828              	.L33:
 228:Drivers/W25qxx/w25qxx.c **** 			w25qxx.BlockCount = 64;
 829              		.loc 1 228 4 view .LVU157
 228:Drivers/W25qxx/w25qxx.c **** 			w25qxx.BlockCount = 64;
 830              		.loc 1 228 14 is_stmt 0 view .LVU158
 831 0266 204B     		ldr	r3, .L54
 832 0268 0622     		movs	r2, #6
 833 026a 1A70     		strb	r2, [r3]
 229:Drivers/W25qxx/w25qxx.c **** 			#if (INIT_DEBUG == 1)
 834              		.loc 1 229 4 is_stmt 1 view .LVU159
 229:Drivers/W25qxx/w25qxx.c **** 			#if (INIT_DEBUG == 1)
 835              		.loc 1 229 22 is_stmt 0 view .LVU160
 836 026c 4022     		movs	r2, #64
 837 026e DA61     		str	r2, [r3, #28]
 231:Drivers/W25qxx/w25qxx.c **** 			#endif
 838              		.loc 1 231 4 is_stmt 1 view .LVU161
 839 0270 4FF47A73 		mov	r3, #1000
 840 0274 0D22     		movs	r2, #13
 841 0276 2F49     		ldr	r1, .L54+76
 842 0278 1D48     		ldr	r0, .L54+8
 843 027a FFF7FEFF 		bl	HAL_UART_Transmit
 844              	.LVL74:
 233:Drivers/W25qxx/w25qxx.c **** 
 845              		.loc 1 233 3 view .LVU162
 846 027e 3AE7     		b	.L48
 847              	.L34:
 236:Drivers/W25qxx/w25qxx.c **** 			w25qxx.BlockCount = 32;
 848              		.loc 1 236 4 view .LVU163
 236:Drivers/W25qxx/w25qxx.c **** 			w25qxx.BlockCount = 32;
 849              		.loc 1 236 14 is_stmt 0 view .LVU164
 850 0280 194B     		ldr	r3, .L54
 851 0282 0522     		movs	r2, #5
 852 0284 1A70     		strb	r2, [r3]
 237:Drivers/W25qxx/w25qxx.c **** 			#if (INIT_DEBUG == 1)
 853              		.loc 1 237 4 is_stmt 1 view .LVU165
 237:Drivers/W25qxx/w25qxx.c **** 			#if (INIT_DEBUG == 1)
 854              		.loc 1 237 22 is_stmt 0 view .LVU166
 855 0286 2022     		movs	r2, #32
 856 0288 DA61     		str	r2, [r3, #28]
 239:Drivers/W25qxx/w25qxx.c **** 			#endif
 857              		.loc 1 239 4 is_stmt 1 view .LVU167
 858 028a 4FF47A73 		mov	r3, #1000
 859 028e 0D22     		movs	r2, #13
 860 0290 2949     		ldr	r1, .L54+80
 861 0292 1748     		ldr	r0, .L54+8
 862 0294 FFF7FEFF 		bl	HAL_UART_Transmit
 863              	.LVL75:
 241:Drivers/W25qxx/w25qxx.c **** 
 864              		.loc 1 241 3 view .LVU168
 865 0298 2DE7     		b	.L48
 866              	.L35:
 244:Drivers/W25qxx/w25qxx.c **** 			w25qxx.BlockCount = 16;
 867              		.loc 1 244 4 view .LVU169
 244:Drivers/W25qxx/w25qxx.c **** 			w25qxx.BlockCount = 16;
 868              		.loc 1 244 14 is_stmt 0 view .LVU170
ARM GAS  C:\Users\Andre\AppData\Local\Temp\cc6DUQzQ.s 			page 25


 869 029a 134B     		ldr	r3, .L54
 870 029c 0422     		movs	r2, #4
 871 029e 1A70     		strb	r2, [r3]
 245:Drivers/W25qxx/w25qxx.c **** 			#if (INIT_DEBUG == 1)
 872              		.loc 1 245 4 is_stmt 1 view .LVU171
 245:Drivers/W25qxx/w25qxx.c **** 			#if (INIT_DEBUG == 1)
 873              		.loc 1 245 22 is_stmt 0 view .LVU172
 874 02a0 1022     		movs	r2, #16
 875 02a2 DA61     		str	r2, [r3, #28]
 247:Drivers/W25qxx/w25qxx.c **** 			#endif
 876              		.loc 1 247 4 is_stmt 1 view .LVU173
 877 02a4 4FF47A73 		mov	r3, #1000
 878 02a8 0D22     		movs	r2, #13
 879 02aa 2449     		ldr	r1, .L54+84
 880 02ac 1048     		ldr	r0, .L54+8
 881 02ae FFF7FEFF 		bl	HAL_UART_Transmit
 882              	.LVL76:
 249:Drivers/W25qxx/w25qxx.c **** 
 883              		.loc 1 249 3 view .LVU174
 884 02b2 20E7     		b	.L48
 885              	.L36:
 252:Drivers/W25qxx/w25qxx.c **** 			w25qxx.BlockCount = 8;
 886              		.loc 1 252 4 view .LVU175
 252:Drivers/W25qxx/w25qxx.c **** 			w25qxx.BlockCount = 8;
 887              		.loc 1 252 14 is_stmt 0 view .LVU176
 888 02b4 0C4B     		ldr	r3, .L54
 889 02b6 0322     		movs	r2, #3
 890 02b8 1A70     		strb	r2, [r3]
 253:Drivers/W25qxx/w25qxx.c **** 			#if (INIT_DEBUG == 1)
 891              		.loc 1 253 4 is_stmt 1 view .LVU177
 253:Drivers/W25qxx/w25qxx.c **** 			#if (INIT_DEBUG == 1)
 892              		.loc 1 253 22 is_stmt 0 view .LVU178
 893 02ba 0822     		movs	r2, #8
 894 02bc DA61     		str	r2, [r3, #28]
 255:Drivers/W25qxx/w25qxx.c **** 			#endif
 895              		.loc 1 255 4 is_stmt 1 view .LVU179
 896 02be 4FF47A73 		mov	r3, #1000
 897 02c2 0D22     		movs	r2, #13
 898 02c4 1E49     		ldr	r1, .L54+88
 899 02c6 0A48     		ldr	r0, .L54+8
 900 02c8 FFF7FEFF 		bl	HAL_UART_Transmit
 901              	.LVL77:
 257:Drivers/W25qxx/w25qxx.c **** 
 902              		.loc 1 257 3 view .LVU180
 903 02cc 13E7     		b	.L48
 904              	.L37:
 260:Drivers/W25qxx/w25qxx.c **** 			w25qxx.BlockCount = 4;
 905              		.loc 1 260 4 view .LVU181
 260:Drivers/W25qxx/w25qxx.c **** 			w25qxx.BlockCount = 4;
 906              		.loc 1 260 14 is_stmt 0 view .LVU182
 907 02ce 064B     		ldr	r3, .L54
 908 02d0 0222     		movs	r2, #2
 909 02d2 1A70     		strb	r2, [r3]
 261:Drivers/W25qxx/w25qxx.c **** 			#if (INIT_DEBUG == 1)
 910              		.loc 1 261 4 is_stmt 1 view .LVU183
 261:Drivers/W25qxx/w25qxx.c **** 			#if (INIT_DEBUG == 1)
 911              		.loc 1 261 22 is_stmt 0 view .LVU184
ARM GAS  C:\Users\Andre\AppData\Local\Temp\cc6DUQzQ.s 			page 26


 912 02d4 0422     		movs	r2, #4
 913 02d6 DA61     		str	r2, [r3, #28]
 263:Drivers/W25qxx/w25qxx.c **** 			#endif
 914              		.loc 1 263 4 is_stmt 1 view .LVU185
 915 02d8 4FF47A73 		mov	r3, #1000
 916 02dc 0D22     		movs	r2, #13
 917 02de 1949     		ldr	r1, .L54+92
 918 02e0 0348     		ldr	r0, .L54+8
 919 02e2 FFF7FEFF 		bl	HAL_UART_Transmit
 920              	.LVL78:
 265:Drivers/W25qxx/w25qxx.c **** 
 921              		.loc 1 265 3 view .LVU186
 922 02e6 06E7     		b	.L48
 923              	.L55:
 924              		.align	2
 925              	.L54:
 926 02e8 00000000 		.word	w25qxx
 927 02ec 00000240 		.word	1073872896
 928 02f0 00000000 		.word	huart1
 929 02f4 00000000 		.word	.LC0
 930 02f8 00000000 		.word	.LANCHOR0
 931 02fc 10000000 		.word	.LC1
 932 0300 2C010000 		.word	.LC19
 933 0304 1C000000 		.word	.LC2
 934 0308 38010000 		.word	.LC20
 935 030c 50010000 		.word	.LC21
 936 0310 64010000 		.word	.LC22
 937 0314 7C010000 		.word	.LC23
 938 0318 90010000 		.word	.LC24
 939 031c A8010000 		.word	.LC25
 940 0320 BC010000 		.word	.LC26
 941 0324 D4010000 		.word	.LC27
 942 0328 2C000000 		.word	.LC3
 943 032c 3C000000 		.word	.LC4
 944 0330 4C000000 		.word	.LC5
 945 0334 5C000000 		.word	.LC6
 946 0338 6C000000 		.word	.LC7
 947 033c 7C000000 		.word	.LC8
 948 0340 8C000000 		.word	.LC9
 949 0344 9C000000 		.word	.LC10
 950              	.L38:
 268:Drivers/W25qxx/w25qxx.c **** 			w25qxx.BlockCount = 2;
 951              		.loc 1 268 4 view .LVU187
 268:Drivers/W25qxx/w25qxx.c **** 			w25qxx.BlockCount = 2;
 952              		.loc 1 268 14 is_stmt 0 view .LVU188
 953 0348 2C4B     		ldr	r3, .L56
 954 034a 0122     		movs	r2, #1
 955 034c 1A70     		strb	r2, [r3]
 269:Drivers/W25qxx/w25qxx.c **** 			#if (INIT_DEBUG == 1)
 956              		.loc 1 269 4 is_stmt 1 view .LVU189
 269:Drivers/W25qxx/w25qxx.c **** 			#if (INIT_DEBUG == 1)
 957              		.loc 1 269 22 is_stmt 0 view .LVU190
 958 034e 0222     		movs	r2, #2
 959 0350 DA61     		str	r2, [r3, #28]
 271:Drivers/W25qxx/w25qxx.c **** 			#endif
 960              		.loc 1 271 4 is_stmt 1 view .LVU191
 961 0352 4FF47A73 		mov	r3, #1000
ARM GAS  C:\Users\Andre\AppData\Local\Temp\cc6DUQzQ.s 			page 27


 962 0356 0D22     		movs	r2, #13
 963 0358 2949     		ldr	r1, .L56+4
 964 035a 2A48     		ldr	r0, .L56+8
 965 035c FFF7FEFF 		bl	HAL_UART_Transmit
 966              	.LVL79:
 273:Drivers/W25qxx/w25qxx.c **** 
 967              		.loc 1 273 3 view .LVU192
 968 0360 C9E6     		b	.L48
 969              	.L39:
 279:Drivers/W25qxx/w25qxx.c **** 			#if (INIT_DEBUG == 1)
 970              		.loc 1 279 4 view .LVU193
 279:Drivers/W25qxx/w25qxx.c **** 			#if (INIT_DEBUG == 1)
 971              		.loc 1 279 22 is_stmt 0 view .LVU194
 972 0362 264B     		ldr	r3, .L56
 973 0364 8022     		movs	r2, #128
 974 0366 DA61     		str	r2, [r3, #28]
 281:Drivers/W25qxx/w25qxx.c **** 			#endif
 975              		.loc 1 281 4 is_stmt 1 view .LVU195
 976 0368 4FF47A73 		mov	r3, #1000
 977 036c 0D22     		movs	r2, #13
 978 036e 2649     		ldr	r1, .L56+12
 979 0370 2448     		ldr	r0, .L56+8
 980 0372 FFF7FEFF 		bl	HAL_UART_Transmit
 981              	.LVL80:
 283:Drivers/W25qxx/w25qxx.c **** 
 982              		.loc 1 283 3 view .LVU196
 983 0376 BEE6     		b	.L48
 984              	.L41:
 287:Drivers/W25qxx/w25qxx.c **** 			#if (INIT_DEBUG == 1)
 985              		.loc 1 287 4 view .LVU197
 287:Drivers/W25qxx/w25qxx.c **** 			#if (INIT_DEBUG == 1)
 986              		.loc 1 287 22 is_stmt 0 view .LVU198
 987 0378 204B     		ldr	r3, .L56
 988 037a 4022     		movs	r2, #64
 989 037c DA61     		str	r2, [r3, #28]
 289:Drivers/W25qxx/w25qxx.c **** 			#endif
 990              		.loc 1 289 4 is_stmt 1 view .LVU199
 991 037e 4FF47A73 		mov	r3, #1000
 992 0382 0D22     		movs	r2, #13
 993 0384 2149     		ldr	r1, .L56+16
 994 0386 1F48     		ldr	r0, .L56+8
 995 0388 FFF7FEFF 		bl	HAL_UART_Transmit
 996              	.LVL81:
 291:Drivers/W25qxx/w25qxx.c **** 
 997              		.loc 1 291 3 view .LVU200
 998 038c B3E6     		b	.L48
 999              	.L42:
 295:Drivers/W25qxx/w25qxx.c **** 			#if (INIT_DEBUG == 1)
 1000              		.loc 1 295 4 view .LVU201
 295:Drivers/W25qxx/w25qxx.c **** 			#if (INIT_DEBUG == 1)
 1001              		.loc 1 295 22 is_stmt 0 view .LVU202
 1002 038e 1B4B     		ldr	r3, .L56
 1003 0390 2022     		movs	r2, #32
 1004 0392 DA61     		str	r2, [r3, #28]
 297:Drivers/W25qxx/w25qxx.c **** 			#endif
 1005              		.loc 1 297 4 is_stmt 1 view .LVU203
 1006 0394 4FF47A73 		mov	r3, #1000
ARM GAS  C:\Users\Andre\AppData\Local\Temp\cc6DUQzQ.s 			page 28


 1007 0398 0D22     		movs	r2, #13
 1008 039a 1D49     		ldr	r1, .L56+20
 1009 039c 1948     		ldr	r0, .L56+8
 1010 039e FFF7FEFF 		bl	HAL_UART_Transmit
 1011              	.LVL82:
 299:Drivers/W25qxx/w25qxx.c **** 
 1012              		.loc 1 299 3 view .LVU204
 1013 03a2 A8E6     		b	.L48
 1014              	.L43:
 304:Drivers/W25qxx/w25qxx.c **** 			#if (INIT_DEBUG == 1)
 1015              		.loc 1 304 4 view .LVU205
 304:Drivers/W25qxx/w25qxx.c **** 			#if (INIT_DEBUG == 1)
 1016              		.loc 1 304 22 is_stmt 0 view .LVU206
 1017 03a4 154B     		ldr	r3, .L56
 1018 03a6 1022     		movs	r2, #16
 1019 03a8 DA61     		str	r2, [r3, #28]
 306:Drivers/W25qxx/w25qxx.c **** 			#endif
 1020              		.loc 1 306 4 is_stmt 1 view .LVU207
 1021 03aa 4FF47A73 		mov	r3, #1000
 1022 03ae 0D22     		movs	r2, #13
 1023 03b0 1849     		ldr	r1, .L56+24
 1024 03b2 1448     		ldr	r0, .L56+8
 1025 03b4 FFF7FEFF 		bl	HAL_UART_Transmit
 1026              	.LVL83:
 308:Drivers/W25qxx/w25qxx.c **** 
 1027              		.loc 1 308 3 view .LVU208
 1028 03b8 9DE6     		b	.L48
 1029              	.L44:
 312:Drivers/W25qxx/w25qxx.c **** 			#if (INIT_DEBUG == 1)
 1030              		.loc 1 312 4 view .LVU209
 312:Drivers/W25qxx/w25qxx.c **** 			#if (INIT_DEBUG == 1)
 1031              		.loc 1 312 22 is_stmt 0 view .LVU210
 1032 03ba 104B     		ldr	r3, .L56
 1033 03bc 0822     		movs	r2, #8
 1034 03be DA61     		str	r2, [r3, #28]
 314:Drivers/W25qxx/w25qxx.c **** 			#endif
 1035              		.loc 1 314 4 is_stmt 1 view .LVU211
 1036 03c0 4FF47A73 		mov	r3, #1000
 1037 03c4 0D22     		movs	r2, #13
 1038 03c6 1449     		ldr	r1, .L56+28
 1039 03c8 0E48     		ldr	r0, .L56+8
 1040 03ca FFF7FEFF 		bl	HAL_UART_Transmit
 1041              	.LVL84:
 316:Drivers/W25qxx/w25qxx.c **** 
 1042              		.loc 1 316 3 view .LVU212
 1043 03ce 92E6     		b	.L48
 1044              	.L45:
 320:Drivers/W25qxx/w25qxx.c **** 			#if (INIT_DEBUG == 1)
 1045              		.loc 1 320 4 view .LVU213
 320:Drivers/W25qxx/w25qxx.c **** 			#if (INIT_DEBUG == 1)
 1046              		.loc 1 320 22 is_stmt 0 view .LVU214
 1047 03d0 0A4B     		ldr	r3, .L56
 1048 03d2 0422     		movs	r2, #4
 1049 03d4 DA61     		str	r2, [r3, #28]
 322:Drivers/W25qxx/w25qxx.c **** 			#endif
 1050              		.loc 1 322 4 is_stmt 1 view .LVU215
 1051 03d6 4FF47A73 		mov	r3, #1000
ARM GAS  C:\Users\Andre\AppData\Local\Temp\cc6DUQzQ.s 			page 29


 1052 03da 0D22     		movs	r2, #13
 1053 03dc 0F49     		ldr	r1, .L56+32
 1054 03de 0948     		ldr	r0, .L56+8
 1055 03e0 FFF7FEFF 		bl	HAL_UART_Transmit
 1056              	.LVL85:
 324:Drivers/W25qxx/w25qxx.c **** 
 1057              		.loc 1 324 3 view .LVU216
 1058 03e4 87E6     		b	.L48
 1059              	.L46:
 328:Drivers/W25qxx/w25qxx.c **** 			#if (INIT_DEBUG == 1)
 1060              		.loc 1 328 4 view .LVU217
 328:Drivers/W25qxx/w25qxx.c **** 			#if (INIT_DEBUG == 1)
 1061              		.loc 1 328 22 is_stmt 0 view .LVU218
 1062 03e6 054B     		ldr	r3, .L56
 1063 03e8 0222     		movs	r2, #2
 1064 03ea DA61     		str	r2, [r3, #28]
 330:Drivers/W25qxx/w25qxx.c **** 			#endif
 1065              		.loc 1 330 4 is_stmt 1 view .LVU219
 1066 03ec 4FF47A73 		mov	r3, #1000
 1067 03f0 0D22     		movs	r2, #13
 1068 03f2 0B49     		ldr	r1, .L56+36
 1069 03f4 0348     		ldr	r0, .L56+8
 1070 03f6 FFF7FEFF 		bl	HAL_UART_Transmit
 1071              	.LVL86:
 332:Drivers/W25qxx/w25qxx.c **** 
 1072              		.loc 1 332 3 view .LVU220
 1073 03fa 7CE6     		b	.L48
 1074              	.L57:
 1075              		.align	2
 1076              	.L56:
 1077 03fc 00000000 		.word	w25qxx
 1078 0400 AC000000 		.word	.LC11
 1079 0404 00000000 		.word	huart1
 1080 0408 BC000000 		.word	.LC12
 1081 040c CC000000 		.word	.LC13
 1082 0410 DC000000 		.word	.LC14
 1083 0414 EC000000 		.word	.LC15
 1084 0418 FC000000 		.word	.LC16
 1085 041c 0C010000 		.word	.LC17
 1086 0420 1C010000 		.word	.LC18
 1087              		.cfi_endproc
 1088              	.LFE243:
 1090              		.section	.text.W25qxx_EraseChip,"ax",%progbits
 1091              		.align	1
 1092              		.global	W25qxx_EraseChip
 1093              		.syntax unified
 1094              		.thumb
 1095              		.thumb_func
 1096              		.fpu fpv4-sp-d16
 1098              	W25qxx_EraseChip:
 1099              	.LFB244:
 386:Drivers/W25qxx/w25qxx.c **** 
 387:Drivers/W25qxx/w25qxx.c **** //#################################################################################################
 388:Drivers/W25qxx/w25qxx.c **** void W25qxx_EraseChip(void)
 389:Drivers/W25qxx/w25qxx.c **** {
 1100              		.loc 1 389 1 view -0
 1101              		.cfi_startproc
ARM GAS  C:\Users\Andre\AppData\Local\Temp\cc6DUQzQ.s 			page 30


 1102              		@ args = 0, pretend = 0, frame = 0
 1103              		@ frame_needed = 0, uses_anonymous_args = 0
 1104 0000 70B5     		push	{r4, r5, r6, lr}
 1105              	.LCFI8:
 1106              		.cfi_def_cfa_offset 16
 1107              		.cfi_offset 4, -16
 1108              		.cfi_offset 5, -12
 1109              		.cfi_offset 6, -8
 1110              		.cfi_offset 14, -4
 390:Drivers/W25qxx/w25qxx.c **** 	while(w25qxx.Lock == 1)
 1111              		.loc 1 390 2 view .LVU222
 1112              	.L59:
 1113              		.loc 1 390 7 view .LVU223
 1114              		.loc 1 390 14 is_stmt 0 view .LVU224
 1115 0002 144B     		ldr	r3, .L63
 1116 0004 93F82730 		ldrb	r3, [r3, #39]	@ zero_extendqisi2
 1117              		.loc 1 390 7 view .LVU225
 1118 0008 012B     		cmp	r3, #1
 1119 000a 03D1     		bne	.L62
 391:Drivers/W25qxx/w25qxx.c **** 		W25qxx_Delay(1);
 1120              		.loc 1 391 3 is_stmt 1 view .LVU226
 1121 000c 0120     		movs	r0, #1
 1122 000e FFF7FEFF 		bl	HAL_Delay
 1123              	.LVL87:
 1124 0012 F6E7     		b	.L59
 1125              	.L62:
 392:Drivers/W25qxx/w25qxx.c **** 
 393:Drivers/W25qxx/w25qxx.c **** 	w25qxx.Lock = 1;
 1126              		.loc 1 393 2 view .LVU227
 1127              		.loc 1 393 14 is_stmt 0 view .LVU228
 1128 0014 0F4C     		ldr	r4, .L63
 1129 0016 0126     		movs	r6, #1
 1130 0018 84F82760 		strb	r6, [r4, #39]
 394:Drivers/W25qxx/w25qxx.c **** 
 395:Drivers/W25qxx/w25qxx.c **** 	W25qxx_WriteEnable();
 1131              		.loc 1 395 2 is_stmt 1 view .LVU229
 1132 001c FFF7FEFF 		bl	W25qxx_WriteEnable
 1133              	.LVL88:
 396:Drivers/W25qxx/w25qxx.c **** 
 397:Drivers/W25qxx/w25qxx.c **** 	W25QFLASH_CS_SELECT;
 1134              		.loc 1 397 2 view .LVU230
 1135 0020 0D4D     		ldr	r5, .L63+4
 1136 0022 0022     		movs	r2, #0
 1137 0024 4FF40041 		mov	r1, #32768
 1138 0028 2846     		mov	r0, r5
 1139 002a FFF7FEFF 		bl	HAL_GPIO_WritePin
 1140              	.LVL89:
 398:Drivers/W25qxx/w25qxx.c **** 	W25qxx_Spi(W25_CHIP_ERASE);
 1141              		.loc 1 398 2 view .LVU231
 1142 002e C720     		movs	r0, #199
 1143 0030 FFF7FEFF 		bl	W25qxx_Spi
 1144              	.LVL90:
 399:Drivers/W25qxx/w25qxx.c **** 	W25QFLASH_CS_UNSELECT;
 1145              		.loc 1 399 2 view .LVU232
 1146 0034 3246     		mov	r2, r6
 1147 0036 4FF40041 		mov	r1, #32768
 1148 003a 2846     		mov	r0, r5
ARM GAS  C:\Users\Andre\AppData\Local\Temp\cc6DUQzQ.s 			page 31


 1149 003c FFF7FEFF 		bl	HAL_GPIO_WritePin
 1150              	.LVL91:
 400:Drivers/W25qxx/w25qxx.c **** 
 401:Drivers/W25qxx/w25qxx.c **** 	W25qxx_WaitForWriteEnd();
 1151              		.loc 1 401 2 view .LVU233
 1152 0040 FFF7FEFF 		bl	W25qxx_WaitForWriteEnd
 1153              	.LVL92:
 402:Drivers/W25qxx/w25qxx.c **** 
 403:Drivers/W25qxx/w25qxx.c **** 	W25qxx_Delay(10);
 1154              		.loc 1 403 2 view .LVU234
 1155 0044 0A20     		movs	r0, #10
 1156 0046 FFF7FEFF 		bl	HAL_Delay
 1157              	.LVL93:
 404:Drivers/W25qxx/w25qxx.c **** 
 405:Drivers/W25qxx/w25qxx.c **** 	w25qxx.Lock = 0;
 1158              		.loc 1 405 2 view .LVU235
 1159              		.loc 1 405 14 is_stmt 0 view .LVU236
 1160 004a 0023     		movs	r3, #0
 1161 004c 84F82730 		strb	r3, [r4, #39]
 406:Drivers/W25qxx/w25qxx.c **** }
 1162              		.loc 1 406 1 view .LVU237
 1163 0050 70BD     		pop	{r4, r5, r6, pc}
 1164              	.L64:
 1165 0052 00BF     		.align	2
 1166              	.L63:
 1167 0054 00000000 		.word	w25qxx
 1168 0058 00000240 		.word	1073872896
 1169              		.cfi_endproc
 1170              	.LFE244:
 1172              		.section	.text.W25qxx_EraseSector,"ax",%progbits
 1173              		.align	1
 1174              		.global	W25qxx_EraseSector
 1175              		.syntax unified
 1176              		.thumb
 1177              		.thumb_func
 1178              		.fpu fpv4-sp-d16
 1180              	W25qxx_EraseSector:
 1181              	.LVL94:
 1182              	.LFB245:
 407:Drivers/W25qxx/w25qxx.c **** 
 408:Drivers/W25qxx/w25qxx.c **** //#################################################################################################
 409:Drivers/W25qxx/w25qxx.c **** void W25qxx_EraseSector(uint32_t SectorAddr)
 410:Drivers/W25qxx/w25qxx.c **** {
 1183              		.loc 1 410 1 is_stmt 1 view -0
 1184              		.cfi_startproc
 1185              		@ args = 0, pretend = 0, frame = 0
 1186              		@ frame_needed = 0, uses_anonymous_args = 0
 1187              		.loc 1 410 1 is_stmt 0 view .LVU239
 1188 0000 38B5     		push	{r3, r4, r5, lr}
 1189              	.LCFI9:
 1190              		.cfi_def_cfa_offset 16
 1191              		.cfi_offset 3, -16
 1192              		.cfi_offset 4, -12
 1193              		.cfi_offset 5, -8
 1194              		.cfi_offset 14, -4
 1195 0002 0446     		mov	r4, r0
 411:Drivers/W25qxx/w25qxx.c **** 	while(w25qxx.Lock == 1)
ARM GAS  C:\Users\Andre\AppData\Local\Temp\cc6DUQzQ.s 			page 32


 1196              		.loc 1 411 2 is_stmt 1 view .LVU240
 1197              	.LVL95:
 1198              	.L66:
 1199              		.loc 1 411 7 view .LVU241
 1200              		.loc 1 411 14 is_stmt 0 view .LVU242
 1201 0004 1F4B     		ldr	r3, .L72
 1202 0006 93F82730 		ldrb	r3, [r3, #39]	@ zero_extendqisi2
 1203              		.loc 1 411 7 view .LVU243
 1204 000a 012B     		cmp	r3, #1
 1205 000c 03D1     		bne	.L70
 412:Drivers/W25qxx/w25qxx.c **** 		W25qxx_Delay(1);
 1206              		.loc 1 412 3 is_stmt 1 view .LVU244
 1207 000e 0120     		movs	r0, #1
 1208 0010 FFF7FEFF 		bl	HAL_Delay
 1209              	.LVL96:
 1210 0014 F6E7     		b	.L66
 1211              	.L70:
 413:Drivers/W25qxx/w25qxx.c **** 
 414:Drivers/W25qxx/w25qxx.c **** 	w25qxx.Lock = 1;
 1212              		.loc 1 414 2 view .LVU245
 1213              		.loc 1 414 14 is_stmt 0 view .LVU246
 1214 0016 1B4D     		ldr	r5, .L72
 1215 0018 0123     		movs	r3, #1
 1216 001a 85F82730 		strb	r3, [r5, #39]
 415:Drivers/W25qxx/w25qxx.c **** 
 416:Drivers/W25qxx/w25qxx.c **** 	W25qxx_WaitForWriteEnd();
 1217              		.loc 1 416 2 is_stmt 1 view .LVU247
 1218 001e FFF7FEFF 		bl	W25qxx_WaitForWriteEnd
 1219              	.LVL97:
 417:Drivers/W25qxx/w25qxx.c **** 	SectorAddr = SectorAddr * w25qxx.SectorSize;
 1220              		.loc 1 417 2 view .LVU248
 1221              		.loc 1 417 34 is_stmt 0 view .LVU249
 1222 0022 2869     		ldr	r0, [r5, #16]
 1223              		.loc 1 417 13 view .LVU250
 1224 0024 04FB00F4 		mul	r4, r4, r0
 1225              	.LVL98:
 418:Drivers/W25qxx/w25qxx.c **** 
 419:Drivers/W25qxx/w25qxx.c **** 	W25qxx_WriteEnable();
 1226              		.loc 1 419 2 is_stmt 1 view .LVU251
 1227 0028 FFF7FEFF 		bl	W25qxx_WriteEnable
 1228              	.LVL99:
 420:Drivers/W25qxx/w25qxx.c **** 
 421:Drivers/W25qxx/w25qxx.c **** 	W25QFLASH_CS_SELECT;
 1229              		.loc 1 421 2 view .LVU252
 1230 002c 0022     		movs	r2, #0
 1231 002e 4FF40041 		mov	r1, #32768
 1232 0032 1548     		ldr	r0, .L72+4
 1233 0034 FFF7FEFF 		bl	HAL_GPIO_WritePin
 1234              	.LVL100:
 422:Drivers/W25qxx/w25qxx.c **** 
 423:Drivers/W25qxx/w25qxx.c **** 	W25qxx_Spi(W25_SECTOR_ERASE);
 1235              		.loc 1 423 2 view .LVU253
 1236 0038 2020     		movs	r0, #32
 1237 003a FFF7FEFF 		bl	W25qxx_Spi
 1238              	.LVL101:
 424:Drivers/W25qxx/w25qxx.c **** 
 425:Drivers/W25qxx/w25qxx.c **** 	if(w25qxx.ID >= W25Q256)
ARM GAS  C:\Users\Andre\AppData\Local\Temp\cc6DUQzQ.s 			page 33


 1239              		.loc 1 425 2 view .LVU254
 1240              		.loc 1 425 11 is_stmt 0 view .LVU255
 1241 003e 2B78     		ldrb	r3, [r5]	@ zero_extendqisi2
 1242              		.loc 1 425 4 view .LVU256
 1243 0040 082B     		cmp	r3, #8
 1244 0042 1AD8     		bhi	.L71
 1245              	.L68:
 426:Drivers/W25qxx/w25qxx.c **** 		W25qxx_Spi((SectorAddr & 0xFF000000) >> 24);
 427:Drivers/W25qxx/w25qxx.c **** 
 428:Drivers/W25qxx/w25qxx.c **** 	W25qxx_Spi((SectorAddr & 0xFF0000) >> 16);
 1246              		.loc 1 428 2 is_stmt 1 view .LVU257
 1247 0044 C4F30740 		ubfx	r0, r4, #16, #8
 1248 0048 FFF7FEFF 		bl	W25qxx_Spi
 1249              	.LVL102:
 429:Drivers/W25qxx/w25qxx.c **** 	W25qxx_Spi((SectorAddr & 0xFF00) >> 8);
 1250              		.loc 1 429 2 view .LVU258
 1251 004c C4F30720 		ubfx	r0, r4, #8, #8
 1252 0050 FFF7FEFF 		bl	W25qxx_Spi
 1253              	.LVL103:
 430:Drivers/W25qxx/w25qxx.c **** 	W25qxx_Spi(SectorAddr & 0xFF);
 1254              		.loc 1 430 2 view .LVU259
 1255 0054 E0B2     		uxtb	r0, r4
 1256 0056 FFF7FEFF 		bl	W25qxx_Spi
 1257              	.LVL104:
 431:Drivers/W25qxx/w25qxx.c **** 
 432:Drivers/W25qxx/w25qxx.c **** 	W25QFLASH_CS_UNSELECT;
 1258              		.loc 1 432 2 view .LVU260
 1259 005a 0122     		movs	r2, #1
 1260 005c 4FF40041 		mov	r1, #32768
 1261 0060 0948     		ldr	r0, .L72+4
 1262 0062 FFF7FEFF 		bl	HAL_GPIO_WritePin
 1263              	.LVL105:
 433:Drivers/W25qxx/w25qxx.c **** 
 434:Drivers/W25qxx/w25qxx.c **** 	W25qxx_WaitForWriteEnd();
 1264              		.loc 1 434 2 view .LVU261
 1265 0066 FFF7FEFF 		bl	W25qxx_WaitForWriteEnd
 1266              	.LVL106:
 435:Drivers/W25qxx/w25qxx.c **** 
 436:Drivers/W25qxx/w25qxx.c **** 	W25qxx_Delay(1);
 1267              		.loc 1 436 2 view .LVU262
 1268 006a 0120     		movs	r0, #1
 1269 006c FFF7FEFF 		bl	HAL_Delay
 1270              	.LVL107:
 437:Drivers/W25qxx/w25qxx.c **** 	w25qxx.Lock = 0;
 1271              		.loc 1 437 2 view .LVU263
 1272              		.loc 1 437 14 is_stmt 0 view .LVU264
 1273 0070 044B     		ldr	r3, .L72
 1274 0072 0022     		movs	r2, #0
 1275 0074 83F82720 		strb	r2, [r3, #39]
 438:Drivers/W25qxx/w25qxx.c **** }
 1276              		.loc 1 438 1 view .LVU265
 1277 0078 38BD     		pop	{r3, r4, r5, pc}
 1278              	.LVL108:
 1279              	.L71:
 426:Drivers/W25qxx/w25qxx.c **** 
 1280              		.loc 1 426 3 is_stmt 1 view .LVU266
 1281 007a 200E     		lsrs	r0, r4, #24
ARM GAS  C:\Users\Andre\AppData\Local\Temp\cc6DUQzQ.s 			page 34


 1282 007c FFF7FEFF 		bl	W25qxx_Spi
 1283              	.LVL109:
 1284 0080 E0E7     		b	.L68
 1285              	.L73:
 1286 0082 00BF     		.align	2
 1287              	.L72:
 1288 0084 00000000 		.word	w25qxx
 1289 0088 00000240 		.word	1073872896
 1290              		.cfi_endproc
 1291              	.LFE245:
 1293              		.section	.text.W25qxx_EraseBlock,"ax",%progbits
 1294              		.align	1
 1295              		.global	W25qxx_EraseBlock
 1296              		.syntax unified
 1297              		.thumb
 1298              		.thumb_func
 1299              		.fpu fpv4-sp-d16
 1301              	W25qxx_EraseBlock:
 1302              	.LVL110:
 1303              	.LFB246:
 439:Drivers/W25qxx/w25qxx.c **** 
 440:Drivers/W25qxx/w25qxx.c **** //#################################################################################################
 441:Drivers/W25qxx/w25qxx.c **** void W25qxx_EraseBlock(uint32_t BlockAddr)
 442:Drivers/W25qxx/w25qxx.c **** {
 1304              		.loc 1 442 1 view -0
 1305              		.cfi_startproc
 1306              		@ args = 0, pretend = 0, frame = 0
 1307              		@ frame_needed = 0, uses_anonymous_args = 0
 1308              		.loc 1 442 1 is_stmt 0 view .LVU268
 1309 0000 38B5     		push	{r3, r4, r5, lr}
 1310              	.LCFI10:
 1311              		.cfi_def_cfa_offset 16
 1312              		.cfi_offset 3, -16
 1313              		.cfi_offset 4, -12
 1314              		.cfi_offset 5, -8
 1315              		.cfi_offset 14, -4
 1316 0002 0446     		mov	r4, r0
 443:Drivers/W25qxx/w25qxx.c **** 	while(w25qxx.Lock == 1)
 1317              		.loc 1 443 2 is_stmt 1 view .LVU269
 1318              	.LVL111:
 1319              	.L75:
 1320              		.loc 1 443 7 view .LVU270
 1321              		.loc 1 443 14 is_stmt 0 view .LVU271
 1322 0004 204B     		ldr	r3, .L81
 1323 0006 93F82730 		ldrb	r3, [r3, #39]	@ zero_extendqisi2
 1324              		.loc 1 443 7 view .LVU272
 1325 000a 012B     		cmp	r3, #1
 1326 000c 03D1     		bne	.L79
 444:Drivers/W25qxx/w25qxx.c **** 		W25qxx_Delay(1);
 1327              		.loc 1 444 3 is_stmt 1 view .LVU273
 1328 000e 0120     		movs	r0, #1
 1329 0010 FFF7FEFF 		bl	HAL_Delay
 1330              	.LVL112:
 1331 0014 F6E7     		b	.L75
 1332              	.L79:
 445:Drivers/W25qxx/w25qxx.c **** 
 446:Drivers/W25qxx/w25qxx.c **** 	w25qxx.Lock = 1;
ARM GAS  C:\Users\Andre\AppData\Local\Temp\cc6DUQzQ.s 			page 35


 1333              		.loc 1 446 2 view .LVU274
 1334              		.loc 1 446 14 is_stmt 0 view .LVU275
 1335 0016 1C4D     		ldr	r5, .L81
 1336 0018 0123     		movs	r3, #1
 1337 001a 85F82730 		strb	r3, [r5, #39]
 447:Drivers/W25qxx/w25qxx.c **** 
 448:Drivers/W25qxx/w25qxx.c **** 	W25qxx_WaitForWriteEnd();
 1338              		.loc 1 448 2 is_stmt 1 view .LVU276
 1339 001e FFF7FEFF 		bl	W25qxx_WaitForWriteEnd
 1340              	.LVL113:
 449:Drivers/W25qxx/w25qxx.c **** 
 450:Drivers/W25qxx/w25qxx.c **** 	BlockAddr = BlockAddr * w25qxx.SectorSize * 16;
 1341              		.loc 1 450 2 view .LVU277
 1342              		.loc 1 450 32 is_stmt 0 view .LVU278
 1343 0022 2869     		ldr	r0, [r5, #16]
 1344              		.loc 1 450 24 view .LVU279
 1345 0024 04FB00F4 		mul	r4, r4, r0
 1346              	.LVL114:
 1347              		.loc 1 450 12 view .LVU280
 1348 0028 2401     		lsls	r4, r4, #4
 1349              	.LVL115:
 451:Drivers/W25qxx/w25qxx.c **** 
 452:Drivers/W25qxx/w25qxx.c **** 	W25qxx_WriteEnable();
 1350              		.loc 1 452 2 is_stmt 1 view .LVU281
 1351 002a FFF7FEFF 		bl	W25qxx_WriteEnable
 1352              	.LVL116:
 453:Drivers/W25qxx/w25qxx.c **** 
 454:Drivers/W25qxx/w25qxx.c **** 	W25QFLASH_CS_SELECT;
 1353              		.loc 1 454 2 view .LVU282
 1354 002e 0022     		movs	r2, #0
 1355 0030 4FF40041 		mov	r1, #32768
 1356 0034 1548     		ldr	r0, .L81+4
 1357 0036 FFF7FEFF 		bl	HAL_GPIO_WritePin
 1358              	.LVL117:
 455:Drivers/W25qxx/w25qxx.c **** 
 456:Drivers/W25qxx/w25qxx.c **** 	W25qxx_Spi(W25_BLOCK_ERASE);
 1359              		.loc 1 456 2 view .LVU283
 1360 003a D820     		movs	r0, #216
 1361 003c FFF7FEFF 		bl	W25qxx_Spi
 1362              	.LVL118:
 457:Drivers/W25qxx/w25qxx.c **** 
 458:Drivers/W25qxx/w25qxx.c **** 	if(w25qxx.ID>=W25Q256)
 1363              		.loc 1 458 2 view .LVU284
 1364              		.loc 1 458 11 is_stmt 0 view .LVU285
 1365 0040 2B78     		ldrb	r3, [r5]	@ zero_extendqisi2
 1366              		.loc 1 458 4 view .LVU286
 1367 0042 082B     		cmp	r3, #8
 1368 0044 1BD8     		bhi	.L80
 1369              	.L77:
 459:Drivers/W25qxx/w25qxx.c **** 		W25qxx_Spi((BlockAddr & 0xFF000000) >> 24);
 460:Drivers/W25qxx/w25qxx.c **** 
 461:Drivers/W25qxx/w25qxx.c **** 	W25qxx_Spi((BlockAddr & 0xFF0000) >> 16);
 1370              		.loc 1 461 2 is_stmt 1 view .LVU287
 1371 0046 C4F30740 		ubfx	r0, r4, #16, #8
 1372 004a FFF7FEFF 		bl	W25qxx_Spi
 1373              	.LVL119:
 462:Drivers/W25qxx/w25qxx.c **** 	W25qxx_Spi((BlockAddr & 0xFF00) >> 8);
ARM GAS  C:\Users\Andre\AppData\Local\Temp\cc6DUQzQ.s 			page 36


 1374              		.loc 1 462 2 view .LVU288
 1375 004e C4F30720 		ubfx	r0, r4, #8, #8
 1376 0052 FFF7FEFF 		bl	W25qxx_Spi
 1377              	.LVL120:
 463:Drivers/W25qxx/w25qxx.c **** 	W25qxx_Spi(BlockAddr & 0xFF);
 1378              		.loc 1 463 2 view .LVU289
 1379 0056 04F0F000 		and	r0, r4, #240
 1380 005a FFF7FEFF 		bl	W25qxx_Spi
 1381              	.LVL121:
 464:Drivers/W25qxx/w25qxx.c **** 
 465:Drivers/W25qxx/w25qxx.c **** 	W25QFLASH_CS_UNSELECT;
 1382              		.loc 1 465 2 view .LVU290
 1383 005e 0122     		movs	r2, #1
 1384 0060 4FF40041 		mov	r1, #32768
 1385 0064 0948     		ldr	r0, .L81+4
 1386 0066 FFF7FEFF 		bl	HAL_GPIO_WritePin
 1387              	.LVL122:
 466:Drivers/W25qxx/w25qxx.c **** 
 467:Drivers/W25qxx/w25qxx.c **** 	W25qxx_WaitForWriteEnd();
 1388              		.loc 1 467 2 view .LVU291
 1389 006a FFF7FEFF 		bl	W25qxx_WaitForWriteEnd
 1390              	.LVL123:
 468:Drivers/W25qxx/w25qxx.c **** 
 469:Drivers/W25qxx/w25qxx.c **** 	W25qxx_Delay(1);
 1391              		.loc 1 469 2 view .LVU292
 1392 006e 0120     		movs	r0, #1
 1393 0070 FFF7FEFF 		bl	HAL_Delay
 1394              	.LVL124:
 470:Drivers/W25qxx/w25qxx.c **** 	w25qxx.Lock = 0;
 1395              		.loc 1 470 2 view .LVU293
 1396              		.loc 1 470 14 is_stmt 0 view .LVU294
 1397 0074 044B     		ldr	r3, .L81
 1398 0076 0022     		movs	r2, #0
 1399 0078 83F82720 		strb	r2, [r3, #39]
 471:Drivers/W25qxx/w25qxx.c **** }
 1400              		.loc 1 471 1 view .LVU295
 1401 007c 38BD     		pop	{r3, r4, r5, pc}
 1402              	.LVL125:
 1403              	.L80:
 459:Drivers/W25qxx/w25qxx.c **** 
 1404              		.loc 1 459 3 is_stmt 1 view .LVU296
 1405 007e 200E     		lsrs	r0, r4, #24
 1406 0080 FFF7FEFF 		bl	W25qxx_Spi
 1407              	.LVL126:
 1408 0084 DFE7     		b	.L77
 1409              	.L82:
 1410 0086 00BF     		.align	2
 1411              	.L81:
 1412 0088 00000000 		.word	w25qxx
 1413 008c 00000240 		.word	1073872896
 1414              		.cfi_endproc
 1415              	.LFE246:
 1417              		.section	.text.W25qxx_PageToSector,"ax",%progbits
 1418              		.align	1
 1419              		.global	W25qxx_PageToSector
 1420              		.syntax unified
 1421              		.thumb
ARM GAS  C:\Users\Andre\AppData\Local\Temp\cc6DUQzQ.s 			page 37


 1422              		.thumb_func
 1423              		.fpu fpv4-sp-d16
 1425              	W25qxx_PageToSector:
 1426              	.LVL127:
 1427              	.LFB247:
 472:Drivers/W25qxx/w25qxx.c **** 
 473:Drivers/W25qxx/w25qxx.c **** //#################################################################################################
 474:Drivers/W25qxx/w25qxx.c **** uint32_t W25qxx_PageToSector(uint32_t PageAddress)
 475:Drivers/W25qxx/w25qxx.c **** {
 1428              		.loc 1 475 1 view -0
 1429              		.cfi_startproc
 1430              		@ args = 0, pretend = 0, frame = 0
 1431              		@ frame_needed = 0, uses_anonymous_args = 0
 1432              		@ link register save eliminated.
 476:Drivers/W25qxx/w25qxx.c **** 	return((PageAddress * w25qxx.PageSize) / w25qxx.SectorSize);
 1433              		.loc 1 476 2 view .LVU298
 1434              		.loc 1 476 30 is_stmt 0 view .LVU299
 1435 0000 034B     		ldr	r3, .L84
 1436 0002 5A89     		ldrh	r2, [r3, #10]
 1437              		.loc 1 476 22 view .LVU300
 1438 0004 00FB02F0 		mul	r0, r0, r2
 1439              	.LVL128:
 1440              		.loc 1 476 49 view .LVU301
 1441 0008 1B69     		ldr	r3, [r3, #16]
 477:Drivers/W25qxx/w25qxx.c **** }
 1442              		.loc 1 477 1 view .LVU302
 1443 000a B0FBF3F0 		udiv	r0, r0, r3
 1444 000e 7047     		bx	lr
 1445              	.L85:
 1446              		.align	2
 1447              	.L84:
 1448 0010 00000000 		.word	w25qxx
 1449              		.cfi_endproc
 1450              	.LFE247:
 1452              		.section	.text.W25qxx_PageToBlock,"ax",%progbits
 1453              		.align	1
 1454              		.global	W25qxx_PageToBlock
 1455              		.syntax unified
 1456              		.thumb
 1457              		.thumb_func
 1458              		.fpu fpv4-sp-d16
 1460              	W25qxx_PageToBlock:
 1461              	.LVL129:
 1462              	.LFB248:
 478:Drivers/W25qxx/w25qxx.c **** 
 479:Drivers/W25qxx/w25qxx.c **** //#################################################################################################
 480:Drivers/W25qxx/w25qxx.c **** uint32_t W25qxx_PageToBlock(uint32_t PageAddress)
 481:Drivers/W25qxx/w25qxx.c **** {
 1463              		.loc 1 481 1 is_stmt 1 view -0
 1464              		.cfi_startproc
 1465              		@ args = 0, pretend = 0, frame = 0
 1466              		@ frame_needed = 0, uses_anonymous_args = 0
 1467              		@ link register save eliminated.
 482:Drivers/W25qxx/w25qxx.c **** 	return((PageAddress * w25qxx.PageSize) / w25qxx.BlockSize);
 1468              		.loc 1 482 2 view .LVU304
 1469              		.loc 1 482 30 is_stmt 0 view .LVU305
 1470 0000 034B     		ldr	r3, .L87
ARM GAS  C:\Users\Andre\AppData\Local\Temp\cc6DUQzQ.s 			page 38


 1471 0002 5A89     		ldrh	r2, [r3, #10]
 1472              		.loc 1 482 22 view .LVU306
 1473 0004 00FB02F0 		mul	r0, r0, r2
 1474              	.LVL130:
 1475              		.loc 1 482 49 view .LVU307
 1476 0008 9B69     		ldr	r3, [r3, #24]
 483:Drivers/W25qxx/w25qxx.c **** }
 1477              		.loc 1 483 1 view .LVU308
 1478 000a B0FBF3F0 		udiv	r0, r0, r3
 1479 000e 7047     		bx	lr
 1480              	.L88:
 1481              		.align	2
 1482              	.L87:
 1483 0010 00000000 		.word	w25qxx
 1484              		.cfi_endproc
 1485              	.LFE248:
 1487              		.section	.text.W25qxx_SectorToBlock,"ax",%progbits
 1488              		.align	1
 1489              		.global	W25qxx_SectorToBlock
 1490              		.syntax unified
 1491              		.thumb
 1492              		.thumb_func
 1493              		.fpu fpv4-sp-d16
 1495              	W25qxx_SectorToBlock:
 1496              	.LVL131:
 1497              	.LFB249:
 484:Drivers/W25qxx/w25qxx.c **** 
 485:Drivers/W25qxx/w25qxx.c **** //#################################################################################################
 486:Drivers/W25qxx/w25qxx.c **** uint32_t W25qxx_SectorToBlock(uint32_t SectorAddress)
 487:Drivers/W25qxx/w25qxx.c **** {
 1498              		.loc 1 487 1 is_stmt 1 view -0
 1499              		.cfi_startproc
 1500              		@ args = 0, pretend = 0, frame = 0
 1501              		@ frame_needed = 0, uses_anonymous_args = 0
 1502              		@ link register save eliminated.
 488:Drivers/W25qxx/w25qxx.c **** 	return((SectorAddress * w25qxx.SectorSize) / w25qxx.BlockSize);
 1503              		.loc 1 488 2 view .LVU310
 1504              		.loc 1 488 32 is_stmt 0 view .LVU311
 1505 0000 034B     		ldr	r3, .L90
 1506 0002 1A69     		ldr	r2, [r3, #16]
 1507              		.loc 1 488 24 view .LVU312
 1508 0004 00FB02F0 		mul	r0, r0, r2
 1509              	.LVL132:
 1510              		.loc 1 488 53 view .LVU313
 1511 0008 9B69     		ldr	r3, [r3, #24]
 489:Drivers/W25qxx/w25qxx.c **** }
 1512              		.loc 1 489 1 view .LVU314
 1513 000a B0FBF3F0 		udiv	r0, r0, r3
 1514 000e 7047     		bx	lr
 1515              	.L91:
 1516              		.align	2
 1517              	.L90:
 1518 0010 00000000 		.word	w25qxx
 1519              		.cfi_endproc
 1520              	.LFE249:
 1522              		.section	.text.W25qxx_SectorToPage,"ax",%progbits
 1523              		.align	1
ARM GAS  C:\Users\Andre\AppData\Local\Temp\cc6DUQzQ.s 			page 39


 1524              		.global	W25qxx_SectorToPage
 1525              		.syntax unified
 1526              		.thumb
 1527              		.thumb_func
 1528              		.fpu fpv4-sp-d16
 1530              	W25qxx_SectorToPage:
 1531              	.LVL133:
 1532              	.LFB250:
 490:Drivers/W25qxx/w25qxx.c **** 
 491:Drivers/W25qxx/w25qxx.c **** //#################################################################################################
 492:Drivers/W25qxx/w25qxx.c **** uint32_t W25qxx_SectorToPage(uint32_t SectorAddress)
 493:Drivers/W25qxx/w25qxx.c **** {
 1533              		.loc 1 493 1 is_stmt 1 view -0
 1534              		.cfi_startproc
 1535              		@ args = 0, pretend = 0, frame = 0
 1536              		@ frame_needed = 0, uses_anonymous_args = 0
 1537              		@ link register save eliminated.
 494:Drivers/W25qxx/w25qxx.c **** 	return(SectorAddress * w25qxx.SectorSize) / w25qxx.PageSize;
 1538              		.loc 1 494 2 view .LVU316
 1539              		.loc 1 494 31 is_stmt 0 view .LVU317
 1540 0000 034B     		ldr	r3, .L93
 1541 0002 1A69     		ldr	r2, [r3, #16]
 1542              		.loc 1 494 23 view .LVU318
 1543 0004 00FB02F0 		mul	r0, r0, r2
 1544              	.LVL134:
 1545              		.loc 1 494 52 view .LVU319
 1546 0008 5B89     		ldrh	r3, [r3, #10]
 495:Drivers/W25qxx/w25qxx.c **** }
 1547              		.loc 1 495 1 view .LVU320
 1548 000a B0FBF3F0 		udiv	r0, r0, r3
 1549 000e 7047     		bx	lr
 1550              	.L94:
 1551              		.align	2
 1552              	.L93:
 1553 0010 00000000 		.word	w25qxx
 1554              		.cfi_endproc
 1555              	.LFE250:
 1557              		.section	.text.W25qxx_BlockToPage,"ax",%progbits
 1558              		.align	1
 1559              		.global	W25qxx_BlockToPage
 1560              		.syntax unified
 1561              		.thumb
 1562              		.thumb_func
 1563              		.fpu fpv4-sp-d16
 1565              	W25qxx_BlockToPage:
 1566              	.LVL135:
 1567              	.LFB251:
 496:Drivers/W25qxx/w25qxx.c **** 
 497:Drivers/W25qxx/w25qxx.c **** //#################################################################################################
 498:Drivers/W25qxx/w25qxx.c **** uint32_t W25qxx_BlockToPage(uint32_t BlockAddress)
 499:Drivers/W25qxx/w25qxx.c **** {
 1568              		.loc 1 499 1 is_stmt 1 view -0
 1569              		.cfi_startproc
 1570              		@ args = 0, pretend = 0, frame = 0
 1571              		@ frame_needed = 0, uses_anonymous_args = 0
 1572              		@ link register save eliminated.
 500:Drivers/W25qxx/w25qxx.c **** 	return (BlockAddress * w25qxx.BlockSize) / w25qxx.PageSize;
ARM GAS  C:\Users\Andre\AppData\Local\Temp\cc6DUQzQ.s 			page 40


 1573              		.loc 1 500 2 view .LVU322
 1574              		.loc 1 500 31 is_stmt 0 view .LVU323
 1575 0000 034B     		ldr	r3, .L96
 1576 0002 9A69     		ldr	r2, [r3, #24]
 1577              		.loc 1 500 23 view .LVU324
 1578 0004 00FB02F0 		mul	r0, r0, r2
 1579              	.LVL136:
 1580              		.loc 1 500 51 view .LVU325
 1581 0008 5B89     		ldrh	r3, [r3, #10]
 501:Drivers/W25qxx/w25qxx.c **** }
 1582              		.loc 1 501 1 view .LVU326
 1583 000a B0FBF3F0 		udiv	r0, r0, r3
 1584 000e 7047     		bx	lr
 1585              	.L97:
 1586              		.align	2
 1587              	.L96:
 1588 0010 00000000 		.word	w25qxx
 1589              		.cfi_endproc
 1590              	.LFE251:
 1592              		.section	.text.W25qxx_IsEmptyPage,"ax",%progbits
 1593              		.align	1
 1594              		.global	W25qxx_IsEmptyPage
 1595              		.syntax unified
 1596              		.thumb
 1597              		.thumb_func
 1598              		.fpu fpv4-sp-d16
 1600              	W25qxx_IsEmptyPage:
 1601              	.LVL137:
 1602              	.LFB252:
 502:Drivers/W25qxx/w25qxx.c **** 
 503:Drivers/W25qxx/w25qxx.c **** //#################################################################################################
 504:Drivers/W25qxx/w25qxx.c **** uint8_t W25qxx_IsEmptyPage(uint32_t Page_Address, uint32_t OffsetInByte)
 505:Drivers/W25qxx/w25qxx.c **** {
 1603              		.loc 1 505 1 is_stmt 1 view -0
 1604              		.cfi_startproc
 1605              		@ args = 0, pretend = 0, frame = 256
 1606              		@ frame_needed = 0, uses_anonymous_args = 0
 1607              		.loc 1 505 1 is_stmt 0 view .LVU328
 1608 0000 2DE9F043 		push	{r4, r5, r6, r7, r8, r9, lr}
 1609              	.LCFI11:
 1610              		.cfi_def_cfa_offset 28
 1611              		.cfi_offset 4, -28
 1612              		.cfi_offset 5, -24
 1613              		.cfi_offset 6, -20
 1614              		.cfi_offset 7, -16
 1615              		.cfi_offset 8, -12
 1616              		.cfi_offset 9, -8
 1617              		.cfi_offset 14, -4
 1618 0004 C1B0     		sub	sp, sp, #260
 1619              	.LCFI12:
 1620              		.cfi_def_cfa_offset 288
 1621 0006 8146     		mov	r9, r0
 1622 0008 0E46     		mov	r6, r1
 506:Drivers/W25qxx/w25qxx.c **** 	while(w25qxx.Lock == 1)
 1623              		.loc 1 506 2 is_stmt 1 view .LVU329
 1624              	.LVL138:
 1625              	.L99:
ARM GAS  C:\Users\Andre\AppData\Local\Temp\cc6DUQzQ.s 			page 41


 1626              		.loc 1 506 7 view .LVU330
 1627              		.loc 1 506 14 is_stmt 0 view .LVU331
 1628 000a 2E4B     		ldr	r3, .L111
 1629 000c 93F82730 		ldrb	r3, [r3, #39]	@ zero_extendqisi2
 1630              		.loc 1 506 7 view .LVU332
 1631 0010 012B     		cmp	r3, #1
 1632 0012 03D1     		bne	.L107
 507:Drivers/W25qxx/w25qxx.c **** 	W25qxx_Delay(1);
 1633              		.loc 1 507 2 is_stmt 1 view .LVU333
 1634 0014 0120     		movs	r0, #1
 1635 0016 FFF7FEFF 		bl	HAL_Delay
 1636              	.LVL139:
 1637 001a F6E7     		b	.L99
 1638              	.L107:
 508:Drivers/W25qxx/w25qxx.c **** 
 509:Drivers/W25qxx/w25qxx.c **** 	w25qxx.Lock = 1;
 1639              		.loc 1 509 2 view .LVU334
 1640              		.loc 1 509 14 is_stmt 0 view .LVU335
 1641 001c 294F     		ldr	r7, .L111
 1642 001e 0123     		movs	r3, #1
 1643 0020 87F82730 		strb	r3, [r7, #39]
 510:Drivers/W25qxx/w25qxx.c **** 
 511:Drivers/W25qxx/w25qxx.c **** 	uint8_t	pBuffer[256] = {0,};
 1644              		.loc 1 511 2 is_stmt 1 view .LVU336
 1645              		.loc 1 511 10 is_stmt 0 view .LVU337
 1646 0024 4FF00008 		mov	r8, #0
 1647 0028 CDF80080 		str	r8, [sp]
 1648 002c FC22     		movs	r2, #252
 1649 002e 4146     		mov	r1, r8
 1650 0030 01A8     		add	r0, sp, #4
 1651 0032 FFF7FEFF 		bl	memset
 1652              	.LVL140:
 512:Drivers/W25qxx/w25qxx.c **** 	uint32_t WorkAddress = 0;
 1653              		.loc 1 512 2 is_stmt 1 view .LVU338
 513:Drivers/W25qxx/w25qxx.c **** 	uint16_t size = 0;
 1654              		.loc 1 513 2 view .LVU339
 514:Drivers/W25qxx/w25qxx.c **** 
 515:Drivers/W25qxx/w25qxx.c **** 	size = w25qxx.PageSize - OffsetInByte;
 1655              		.loc 1 515 2 view .LVU340
 1656              		.loc 1 515 15 is_stmt 0 view .LVU341
 1657 0036 7D89     		ldrh	r5, [r7, #10]
 1658              		.loc 1 515 25 view .LVU342
 1659 0038 B4B2     		uxth	r4, r6
 1660              		.loc 1 515 7 view .LVU343
 1661 003a 2C1B     		subs	r4, r5, r4
 1662 003c A4B2     		uxth	r4, r4
 1663              	.LVL141:
 516:Drivers/W25qxx/w25qxx.c **** 	WorkAddress = (OffsetInByte + Page_Address * w25qxx.PageSize);
 1664              		.loc 1 516 2 is_stmt 1 view .LVU344
 1665              		.loc 1 516 14 is_stmt 0 view .LVU345
 1666 003e 09FB0565 		mla	r5, r9, r5, r6
 1667              	.LVL142:
 517:Drivers/W25qxx/w25qxx.c **** 
 518:Drivers/W25qxx/w25qxx.c **** 	W25QFLASH_CS_SELECT;
 1668              		.loc 1 518 2 is_stmt 1 view .LVU346
 1669 0042 4246     		mov	r2, r8
 1670 0044 4FF40041 		mov	r1, #32768
ARM GAS  C:\Users\Andre\AppData\Local\Temp\cc6DUQzQ.s 			page 42


 1671 0048 1F48     		ldr	r0, .L111+4
 1672 004a FFF7FEFF 		bl	HAL_GPIO_WritePin
 1673              	.LVL143:
 519:Drivers/W25qxx/w25qxx.c **** 
 520:Drivers/W25qxx/w25qxx.c **** 	W25qxx_Spi(W25_FAST_READ);
 1674              		.loc 1 520 2 view .LVU347
 1675 004e 0B20     		movs	r0, #11
 1676 0050 FFF7FEFF 		bl	W25qxx_Spi
 1677              	.LVL144:
 521:Drivers/W25qxx/w25qxx.c **** 
 522:Drivers/W25qxx/w25qxx.c **** 	if(w25qxx.ID >= W25Q256)
 1678              		.loc 1 522 2 view .LVU348
 1679              		.loc 1 522 11 is_stmt 0 view .LVU349
 1680 0054 3B78     		ldrb	r3, [r7]	@ zero_extendqisi2
 1681              		.loc 1 522 4 view .LVU350
 1682 0056 082B     		cmp	r3, #8
 1683 0058 23D8     		bhi	.L108
 1684              	.L101:
 523:Drivers/W25qxx/w25qxx.c **** 		W25qxx_Spi((WorkAddress & 0xFF000000) >> 24);
 524:Drivers/W25qxx/w25qxx.c **** 
 525:Drivers/W25qxx/w25qxx.c **** 	W25qxx_Spi((WorkAddress & 0xFF0000) >> 16);
 1685              		.loc 1 525 2 is_stmt 1 view .LVU351
 1686 005a C5F30740 		ubfx	r0, r5, #16, #8
 1687 005e FFF7FEFF 		bl	W25qxx_Spi
 1688              	.LVL145:
 526:Drivers/W25qxx/w25qxx.c **** 	W25qxx_Spi((WorkAddress & 0xFF00) >> 8);
 1689              		.loc 1 526 2 view .LVU352
 1690 0062 C5F30720 		ubfx	r0, r5, #8, #8
 1691 0066 FFF7FEFF 		bl	W25qxx_Spi
 1692              	.LVL146:
 527:Drivers/W25qxx/w25qxx.c **** 	W25qxx_Spi(WorkAddress & 0xFF);
 1693              		.loc 1 527 2 view .LVU353
 1694 006a E8B2     		uxtb	r0, r5
 1695 006c FFF7FEFF 		bl	W25qxx_Spi
 1696              	.LVL147:
 528:Drivers/W25qxx/w25qxx.c **** 
 529:Drivers/W25qxx/w25qxx.c **** 	W25qxx_Spi(0);
 1697              		.loc 1 529 2 view .LVU354
 1698 0070 0020     		movs	r0, #0
 1699 0072 FFF7FEFF 		bl	W25qxx_Spi
 1700              	.LVL148:
 530:Drivers/W25qxx/w25qxx.c **** 
 531:Drivers/W25qxx/w25qxx.c **** 	HAL_SPI_Receive(W25QXX_SPI_PTR, pBuffer, size, 100);
 1701              		.loc 1 531 2 view .LVU355
 1702 0076 6423     		movs	r3, #100
 1703 0078 2246     		mov	r2, r4
 1704 007a 6946     		mov	r1, sp
 1705 007c 1348     		ldr	r0, .L111+8
 1706 007e FFF7FEFF 		bl	HAL_SPI_Receive
 1707              	.LVL149:
 532:Drivers/W25qxx/w25qxx.c **** 
 533:Drivers/W25qxx/w25qxx.c **** 	W25QFLASH_CS_UNSELECT;
 1708              		.loc 1 533 2 view .LVU356
 1709 0082 0122     		movs	r2, #1
 1710 0084 4FF40041 		mov	r1, #32768
 1711 0088 0F48     		ldr	r0, .L111+4
 1712 008a FFF7FEFF 		bl	HAL_GPIO_WritePin
ARM GAS  C:\Users\Andre\AppData\Local\Temp\cc6DUQzQ.s 			page 43


 1713              	.LVL150:
 534:Drivers/W25qxx/w25qxx.c **** 
 535:Drivers/W25qxx/w25qxx.c **** 	for(uint16_t i = 0; i < size; i++)
 1714              		.loc 1 535 2 view .LVU357
 1715              	.LBB2:
 1716              		.loc 1 535 6 view .LVU358
 1717              		.loc 1 535 15 is_stmt 0 view .LVU359
 1718 008e 0023     		movs	r3, #0
 1719              	.LVL151:
 1720              	.L102:
 1721              		.loc 1 535 22 is_stmt 1 discriminator 1 view .LVU360
 1722              		.loc 1 535 2 is_stmt 0 discriminator 1 view .LVU361
 1723 0090 A342     		cmp	r3, r4
 1724 0092 0FD2     		bcs	.L109
 536:Drivers/W25qxx/w25qxx.c **** 	{
 537:Drivers/W25qxx/w25qxx.c **** 		if(pBuffer[i] != 0xFF)
 1725              		.loc 1 537 3 is_stmt 1 view .LVU362
 1726              		.loc 1 537 13 is_stmt 0 view .LVU363
 1727 0094 1DF80320 		ldrb	r2, [sp, r3]	@ zero_extendqisi2
 1728              		.loc 1 537 5 view .LVU364
 1729 0098 FF2A     		cmp	r2, #255
 1730 009a 06D1     		bne	.L110
 535:Drivers/W25qxx/w25qxx.c **** 	{
 1731              		.loc 1 535 32 is_stmt 1 discriminator 2 view .LVU365
 535:Drivers/W25qxx/w25qxx.c **** 	{
 1732              		.loc 1 535 33 is_stmt 0 discriminator 2 view .LVU366
 1733 009c 0133     		adds	r3, r3, #1
 1734              	.LVL152:
 535:Drivers/W25qxx/w25qxx.c **** 	{
 1735              		.loc 1 535 33 discriminator 2 view .LVU367
 1736 009e 9BB2     		uxth	r3, r3
 1737              	.LVL153:
 535:Drivers/W25qxx/w25qxx.c **** 	{
 1738              		.loc 1 535 33 discriminator 2 view .LVU368
 1739 00a0 F6E7     		b	.L102
 1740              	.LVL154:
 1741              	.L108:
 535:Drivers/W25qxx/w25qxx.c **** 	{
 1742              		.loc 1 535 33 discriminator 2 view .LVU369
 1743              	.LBE2:
 523:Drivers/W25qxx/w25qxx.c **** 
 1744              		.loc 1 523 3 is_stmt 1 view .LVU370
 1745 00a2 280E     		lsrs	r0, r5, #24
 1746 00a4 FFF7FEFF 		bl	W25qxx_Spi
 1747              	.LVL155:
 1748 00a8 D7E7     		b	.L101
 1749              	.LVL156:
 1750              	.L110:
 1751              	.LBB3:
 538:Drivers/W25qxx/w25qxx.c **** 		{
 539:Drivers/W25qxx/w25qxx.c **** 			w25qxx.Lock = 0;
 1752              		.loc 1 539 4 view .LVU371
 1753              		.loc 1 539 16 is_stmt 0 view .LVU372
 1754 00aa 0020     		movs	r0, #0
 1755 00ac 054B     		ldr	r3, .L111
 1756              	.LVL157:
 1757              		.loc 1 539 16 view .LVU373
ARM GAS  C:\Users\Andre\AppData\Local\Temp\cc6DUQzQ.s 			page 44


 1758 00ae 83F82700 		strb	r0, [r3, #39]
 540:Drivers/W25qxx/w25qxx.c **** 			return 0;
 1759              		.loc 1 540 4 is_stmt 1 view .LVU374
 1760              		.loc 1 540 11 is_stmt 0 view .LVU375
 1761 00b2 04E0     		b	.L104
 1762              	.LVL158:
 1763              	.L109:
 1764              		.loc 1 540 11 view .LVU376
 1765              	.LBE3:
 541:Drivers/W25qxx/w25qxx.c **** 		}
 542:Drivers/W25qxx/w25qxx.c **** 	}
 543:Drivers/W25qxx/w25qxx.c **** 
 544:Drivers/W25qxx/w25qxx.c **** 	w25qxx.Lock = 0;
 1766              		.loc 1 544 2 is_stmt 1 view .LVU377
 1767              		.loc 1 544 14 is_stmt 0 view .LVU378
 1768 00b4 034B     		ldr	r3, .L111
 1769              	.LVL159:
 1770              		.loc 1 544 14 view .LVU379
 1771 00b6 0022     		movs	r2, #0
 1772 00b8 83F82720 		strb	r2, [r3, #39]
 545:Drivers/W25qxx/w25qxx.c **** 	return 1;
 1773              		.loc 1 545 2 is_stmt 1 view .LVU380
 1774              		.loc 1 545 9 is_stmt 0 view .LVU381
 1775 00bc 0120     		movs	r0, #1
 1776              	.L104:
 546:Drivers/W25qxx/w25qxx.c **** }
 1777              		.loc 1 546 1 view .LVU382
 1778 00be 41B0     		add	sp, sp, #260
 1779              	.LCFI13:
 1780              		.cfi_def_cfa_offset 28
 1781              		@ sp needed
 1782 00c0 BDE8F083 		pop	{r4, r5, r6, r7, r8, r9, pc}
 1783              	.LVL160:
 1784              	.L112:
 1785              		.loc 1 546 1 view .LVU383
 1786              		.align	2
 1787              	.L111:
 1788 00c4 00000000 		.word	w25qxx
 1789 00c8 00000240 		.word	1073872896
 1790 00cc 00000000 		.word	hspi1
 1791              		.cfi_endproc
 1792              	.LFE252:
 1794              		.section	.text.W25qxx_IsEmptySector,"ax",%progbits
 1795              		.align	1
 1796              		.global	W25qxx_IsEmptySector
 1797              		.syntax unified
 1798              		.thumb
 1799              		.thumb_func
 1800              		.fpu fpv4-sp-d16
 1802              	W25qxx_IsEmptySector:
 1803              	.LVL161:
 1804              	.LFB253:
 547:Drivers/W25qxx/w25qxx.c **** 
 548:Drivers/W25qxx/w25qxx.c **** //#################################################################################################
 549:Drivers/W25qxx/w25qxx.c **** uint8_t W25qxx_IsEmptySector(uint32_t Sector_Address, uint32_t OffsetInByte)
 550:Drivers/W25qxx/w25qxx.c **** {
 1805              		.loc 1 550 1 is_stmt 1 view -0
ARM GAS  C:\Users\Andre\AppData\Local\Temp\cc6DUQzQ.s 			page 45


 1806              		.cfi_startproc
 1807              		@ args = 0, pretend = 0, frame = 256
 1808              		@ frame_needed = 0, uses_anonymous_args = 0
 1809              		.loc 1 550 1 is_stmt 0 view .LVU385
 1810 0000 2DE9F041 		push	{r4, r5, r6, r7, r8, lr}
 1811              	.LCFI14:
 1812              		.cfi_def_cfa_offset 24
 1813              		.cfi_offset 4, -24
 1814              		.cfi_offset 5, -20
 1815              		.cfi_offset 6, -16
 1816              		.cfi_offset 7, -12
 1817              		.cfi_offset 8, -8
 1818              		.cfi_offset 14, -4
 1819 0004 C0B0     		sub	sp, sp, #256
 1820              	.LCFI15:
 1821              		.cfi_def_cfa_offset 280
 1822 0006 0746     		mov	r7, r0
 1823 0008 0C46     		mov	r4, r1
 551:Drivers/W25qxx/w25qxx.c **** 	while(w25qxx.Lock == 1)
 1824              		.loc 1 551 2 is_stmt 1 view .LVU386
 1825              	.LVL162:
 1826              	.L114:
 1827              		.loc 1 551 7 view .LVU387
 1828              		.loc 1 551 14 is_stmt 0 view .LVU388
 1829 000a 3C4B     		ldr	r3, .L133
 1830 000c 93F82730 		ldrb	r3, [r3, #39]	@ zero_extendqisi2
 1831              		.loc 1 551 7 view .LVU389
 1832 0010 012B     		cmp	r3, #1
 1833 0012 03D1     		bne	.L128
 552:Drivers/W25qxx/w25qxx.c **** 	W25qxx_Delay(1);
 1834              		.loc 1 552 2 is_stmt 1 view .LVU390
 1835 0014 0120     		movs	r0, #1
 1836 0016 FFF7FEFF 		bl	HAL_Delay
 1837              	.LVL163:
 1838 001a F6E7     		b	.L114
 1839              	.L128:
 553:Drivers/W25qxx/w25qxx.c **** 
 554:Drivers/W25qxx/w25qxx.c **** 	w25qxx.Lock = 1;
 1840              		.loc 1 554 2 view .LVU391
 1841              		.loc 1 554 14 is_stmt 0 view .LVU392
 1842 001c 374D     		ldr	r5, .L133
 1843 001e 0123     		movs	r3, #1
 1844 0020 85F82730 		strb	r3, [r5, #39]
 555:Drivers/W25qxx/w25qxx.c **** 
 556:Drivers/W25qxx/w25qxx.c **** 	uint8_t	pBuffer[256] = {0,};
 1845              		.loc 1 556 2 is_stmt 1 view .LVU393
 1846              		.loc 1 556 10 is_stmt 0 view .LVU394
 1847 0024 0021     		movs	r1, #0
 1848 0026 0091     		str	r1, [sp]
 1849 0028 FC22     		movs	r2, #252
 1850 002a 01A8     		add	r0, sp, #4
 1851 002c FFF7FEFF 		bl	memset
 1852              	.LVL164:
 557:Drivers/W25qxx/w25qxx.c **** 	uint32_t WorkAddress = 0;
 1853              		.loc 1 557 2 is_stmt 1 view .LVU395
 558:Drivers/W25qxx/w25qxx.c **** 	uint16_t s_buf = 256;
 1854              		.loc 1 558 2 view .LVU396
ARM GAS  C:\Users\Andre\AppData\Local\Temp\cc6DUQzQ.s 			page 46


 559:Drivers/W25qxx/w25qxx.c **** 	uint16_t size = 0;
 1855              		.loc 1 559 2 view .LVU397
 560:Drivers/W25qxx/w25qxx.c **** 
 561:Drivers/W25qxx/w25qxx.c **** 	size = w25qxx.SectorSize - OffsetInByte;
 1856              		.loc 1 561 2 view .LVU398
 1857              		.loc 1 561 15 is_stmt 0 view .LVU399
 1858 0030 2D69     		ldr	r5, [r5, #16]
 1859              		.loc 1 561 27 view .LVU400
 1860 0032 ABB2     		uxth	r3, r5
 1861 0034 A2B2     		uxth	r2, r4
 1862              		.loc 1 561 7 view .LVU401
 1863 0036 9B1A     		subs	r3, r3, r2
 1864 0038 9EB2     		uxth	r6, r3
 1865              	.LVL165:
 562:Drivers/W25qxx/w25qxx.c **** 	WorkAddress = (OffsetInByte + Sector_Address * w25qxx.SectorSize);
 1866              		.loc 1 562 2 is_stmt 1 view .LVU402
 1867              		.loc 1 562 14 is_stmt 0 view .LVU403
 1868 003a 07FB0545 		mla	r5, r7, r5, r4
 1869              	.LVL166:
 563:Drivers/W25qxx/w25qxx.c **** 
 564:Drivers/W25qxx/w25qxx.c **** //char buf2[64] = {0,};
 565:Drivers/W25qxx/w25qxx.c **** //snprintf(buf2, 64, "SIZE %d \n", size);
 566:Drivers/W25qxx/w25qxx.c **** //HAL_UART_Transmit(&huart1, (uint8_t*)buf2, strlen(buf2), 100);
 567:Drivers/W25qxx/w25qxx.c **** 
 568:Drivers/W25qxx/w25qxx.c **** 	uint16_t cikl = size / 256;
 1870              		.loc 1 568 2 is_stmt 1 view .LVU404
 1871              		.loc 1 568 11 is_stmt 0 view .LVU405
 1872 003e C3F30727 		ubfx	r7, r3, #8, #8
 1873              	.LVL167:
 569:Drivers/W25qxx/w25qxx.c **** 	uint16_t cikl2 = size % 256;
 1874              		.loc 1 569 2 is_stmt 1 view .LVU406
 1875              		.loc 1 569 11 is_stmt 0 view .LVU407
 1876 0042 DBB2     		uxtb	r3, r3
 1877              	.LVL168:
 570:Drivers/W25qxx/w25qxx.c **** 	uint16_t count_cikle = 0;
 1878              		.loc 1 570 2 is_stmt 1 view .LVU408
 571:Drivers/W25qxx/w25qxx.c **** 
 572:Drivers/W25qxx/w25qxx.c **** 	if(size <= 256)
 1879              		.loc 1 572 2 view .LVU409
 1880              		.loc 1 572 4 is_stmt 0 view .LVU410
 1881 0044 B6F5807F 		cmp	r6, #256
 1882 0048 02D9     		bls	.L125
 573:Drivers/W25qxx/w25qxx.c **** 	{
 574:Drivers/W25qxx/w25qxx.c **** 		count_cikle = 1;
 575:Drivers/W25qxx/w25qxx.c **** 		//HAL_UART_Transmit(&huart1, (uint8_t*)"1\n", 2, 100);
 576:Drivers/W25qxx/w25qxx.c **** 	}
 577:Drivers/W25qxx/w25qxx.c **** 	else if(cikl2 == 0)
 1883              		.loc 1 577 7 is_stmt 1 view .LVU411
 1884              		.loc 1 577 9 is_stmt 0 view .LVU412
 1885 004a 13B1     		cbz	r3, .L116
 578:Drivers/W25qxx/w25qxx.c **** 	{
 579:Drivers/W25qxx/w25qxx.c **** 		count_cikle = cikl;
 580:Drivers/W25qxx/w25qxx.c **** 		//HAL_UART_Transmit(&huart1, (uint8_t*)"2\n", 2, 100);
 581:Drivers/W25qxx/w25qxx.c **** 	}
 582:Drivers/W25qxx/w25qxx.c **** 	else
 583:Drivers/W25qxx/w25qxx.c **** 	{
 584:Drivers/W25qxx/w25qxx.c **** 		count_cikle = cikl + 1;
ARM GAS  C:\Users\Andre\AppData\Local\Temp\cc6DUQzQ.s 			page 47


 1886              		.loc 1 584 3 is_stmt 1 view .LVU413
 1887              		.loc 1 584 15 is_stmt 0 view .LVU414
 1888 004c 0137     		adds	r7, r7, #1
 1889              	.LVL169:
 1890              		.loc 1 584 15 view .LVU415
 1891 004e 00E0     		b	.L116
 1892              	.LVL170:
 1893              	.L125:
 574:Drivers/W25qxx/w25qxx.c **** 		//HAL_UART_Transmit(&huart1, (uint8_t*)"1\n", 2, 100);
 1894              		.loc 1 574 15 view .LVU416
 1895 0050 0127     		movs	r7, #1
 1896              	.LVL171:
 1897              	.L116:
 585:Drivers/W25qxx/w25qxx.c **** 		//HAL_UART_Transmit(&huart1, (uint8_t*)"3\n", 2, 100);
 586:Drivers/W25qxx/w25qxx.c **** 	}
 587:Drivers/W25qxx/w25qxx.c **** 
 588:Drivers/W25qxx/w25qxx.c **** 
 589:Drivers/W25qxx/w25qxx.c **** 	for(uint16_t i = 0; i < count_cikle; i++)
 1898              		.loc 1 589 2 is_stmt 1 view .LVU417
 1899              	.LBB4:
 1900              		.loc 1 589 6 view .LVU418
 1901              		.loc 1 589 15 is_stmt 0 view .LVU419
 1902 0052 4FF00008 		mov	r8, #0
 1903              	.LBE4:
 558:Drivers/W25qxx/w25qxx.c **** 	uint16_t size = 0;
 1904              		.loc 1 558 11 view .LVU420
 1905 0056 4FF48074 		mov	r4, #256
 1906              	.LVL172:
 1907              	.L117:
 1908              	.LBB7:
 1909              		.loc 1 589 22 is_stmt 1 discriminator 1 view .LVU421
 1910              		.loc 1 589 2 is_stmt 0 discriminator 1 view .LVU422
 1911 005a 4745     		cmp	r7, r8
 1912 005c 48D9     		bls	.L129
 590:Drivers/W25qxx/w25qxx.c **** 	{
 591:Drivers/W25qxx/w25qxx.c **** 		W25QFLASH_CS_SELECT;
 1913              		.loc 1 591 3 is_stmt 1 view .LVU423
 1914 005e 0022     		movs	r2, #0
 1915 0060 4FF40041 		mov	r1, #32768
 1916 0064 2648     		ldr	r0, .L133+4
 1917 0066 FFF7FEFF 		bl	HAL_GPIO_WritePin
 1918              	.LVL173:
 592:Drivers/W25qxx/w25qxx.c **** 		W25qxx_Spi(W25_FAST_READ);
 1919              		.loc 1 592 3 view .LVU424
 1920 006a 0B20     		movs	r0, #11
 1921 006c FFF7FEFF 		bl	W25qxx_Spi
 1922              	.LVL174:
 593:Drivers/W25qxx/w25qxx.c **** 
 594:Drivers/W25qxx/w25qxx.c **** 		if(w25qxx.ID>=W25Q256)
 1923              		.loc 1 594 3 view .LVU425
 1924              		.loc 1 594 12 is_stmt 0 view .LVU426
 1925 0070 224B     		ldr	r3, .L133
 1926 0072 1B78     		ldrb	r3, [r3]	@ zero_extendqisi2
 1927              		.loc 1 594 5 view .LVU427
 1928 0074 082B     		cmp	r3, #8
 1929 0076 26D8     		bhi	.L130
 1930              	.L118:
ARM GAS  C:\Users\Andre\AppData\Local\Temp\cc6DUQzQ.s 			page 48


 595:Drivers/W25qxx/w25qxx.c **** 			W25qxx_Spi((WorkAddress & 0xFF000000) >> 24);
 596:Drivers/W25qxx/w25qxx.c **** 
 597:Drivers/W25qxx/w25qxx.c **** 		W25qxx_Spi((WorkAddress & 0xFF0000) >> 16);
 1931              		.loc 1 597 3 is_stmt 1 view .LVU428
 1932 0078 C5F30740 		ubfx	r0, r5, #16, #8
 1933 007c FFF7FEFF 		bl	W25qxx_Spi
 1934              	.LVL175:
 598:Drivers/W25qxx/w25qxx.c **** 		W25qxx_Spi((WorkAddress & 0xFF00) >> 8);
 1935              		.loc 1 598 3 view .LVU429
 1936 0080 C5F30720 		ubfx	r0, r5, #8, #8
 1937 0084 FFF7FEFF 		bl	W25qxx_Spi
 1938              	.LVL176:
 599:Drivers/W25qxx/w25qxx.c **** 		W25qxx_Spi(WorkAddress & 0xFF);
 1939              		.loc 1 599 3 view .LVU430
 1940 0088 E8B2     		uxtb	r0, r5
 1941 008a FFF7FEFF 		bl	W25qxx_Spi
 1942              	.LVL177:
 600:Drivers/W25qxx/w25qxx.c **** 
 601:Drivers/W25qxx/w25qxx.c **** 		W25qxx_Spi(0);
 1943              		.loc 1 601 3 view .LVU431
 1944 008e 0020     		movs	r0, #0
 1945 0090 FFF7FEFF 		bl	W25qxx_Spi
 1946              	.LVL178:
 602:Drivers/W25qxx/w25qxx.c **** 
 603:Drivers/W25qxx/w25qxx.c **** 		if(size < 256) s_buf = size;
 1947              		.loc 1 603 3 view .LVU432
 1948              		.loc 1 603 5 is_stmt 0 view .LVU433
 1949 0094 FF2E     		cmp	r6, #255
 1950 0096 00D8     		bhi	.L119
 1951              		.loc 1 603 24 view .LVU434
 1952 0098 3446     		mov	r4, r6
 1953              	.LVL179:
 1954              	.L119:
 604:Drivers/W25qxx/w25qxx.c **** 
 605:Drivers/W25qxx/w25qxx.c **** //snprintf(buf2, 64, "RECIV %d %d %d %lu\n", size, s_buf, i, WorkAddress);
 606:Drivers/W25qxx/w25qxx.c **** //HAL_UART_Transmit(&huart1, (uint8_t*)buf2, strlen(buf2), 100);
 607:Drivers/W25qxx/w25qxx.c **** 
 608:Drivers/W25qxx/w25qxx.c **** 		HAL_SPI_Receive(W25QXX_SPI_PTR, pBuffer, s_buf, 100);
 1955              		.loc 1 608 3 is_stmt 1 view .LVU435
 1956 009a 6423     		movs	r3, #100
 1957 009c 2246     		mov	r2, r4
 1958 009e 6946     		mov	r1, sp
 1959 00a0 1848     		ldr	r0, .L133+8
 1960 00a2 FFF7FEFF 		bl	HAL_SPI_Receive
 1961              	.LVL180:
 609:Drivers/W25qxx/w25qxx.c **** 
 610:Drivers/W25qxx/w25qxx.c **** 		W25QFLASH_CS_UNSELECT;
 1962              		.loc 1 610 3 view .LVU436
 1963 00a6 0122     		movs	r2, #1
 1964 00a8 4FF40041 		mov	r1, #32768
 1965 00ac 1448     		ldr	r0, .L133+4
 1966 00ae FFF7FEFF 		bl	HAL_GPIO_WritePin
 1967              	.LVL181:
 611:Drivers/W25qxx/w25qxx.c **** 
 612:Drivers/W25qxx/w25qxx.c **** 		for(uint16_t i = 0; i < s_buf; i++)
 1968              		.loc 1 612 3 view .LVU437
 1969              	.LBB5:
ARM GAS  C:\Users\Andre\AppData\Local\Temp\cc6DUQzQ.s 			page 49


 1970              		.loc 1 612 7 view .LVU438
 1971              		.loc 1 612 16 is_stmt 0 view .LVU439
 1972 00b2 0023     		movs	r3, #0
 1973              	.LVL182:
 1974              	.L120:
 1975              		.loc 1 612 23 is_stmt 1 discriminator 1 view .LVU440
 1976              		.loc 1 612 3 is_stmt 0 discriminator 1 view .LVU441
 1977 00b4 9C42     		cmp	r4, r3
 1978 00b6 11D9     		bls	.L131
 613:Drivers/W25qxx/w25qxx.c **** 		{
 614:Drivers/W25qxx/w25qxx.c **** 			if(pBuffer[i] != 0xFF)
 1979              		.loc 1 614 4 is_stmt 1 view .LVU442
 1980              		.loc 1 614 14 is_stmt 0 view .LVU443
 1981 00b8 1DF80320 		ldrb	r2, [sp, r3]	@ zero_extendqisi2
 1982              		.loc 1 614 6 view .LVU444
 1983 00bc FF2A     		cmp	r2, #255
 1984 00be 06D1     		bne	.L132
 612:Drivers/W25qxx/w25qxx.c **** 		{
 1985              		.loc 1 612 34 is_stmt 1 discriminator 2 view .LVU445
 612:Drivers/W25qxx/w25qxx.c **** 		{
 1986              		.loc 1 612 35 is_stmt 0 discriminator 2 view .LVU446
 1987 00c0 0133     		adds	r3, r3, #1
 1988              	.LVL183:
 612:Drivers/W25qxx/w25qxx.c **** 		{
 1989              		.loc 1 612 35 discriminator 2 view .LVU447
 1990 00c2 9BB2     		uxth	r3, r3
 1991              	.LVL184:
 612:Drivers/W25qxx/w25qxx.c **** 		{
 1992              		.loc 1 612 35 discriminator 2 view .LVU448
 1993 00c4 F6E7     		b	.L120
 1994              	.LVL185:
 1995              	.L130:
 612:Drivers/W25qxx/w25qxx.c **** 		{
 1996              		.loc 1 612 35 discriminator 2 view .LVU449
 1997              	.LBE5:
 595:Drivers/W25qxx/w25qxx.c **** 
 1998              		.loc 1 595 4 is_stmt 1 view .LVU450
 1999 00c6 280E     		lsrs	r0, r5, #24
 2000 00c8 FFF7FEFF 		bl	W25qxx_Spi
 2001              	.LVL186:
 2002 00cc D4E7     		b	.L118
 2003              	.LVL187:
 2004              	.L132:
 2005              	.LBB6:
 615:Drivers/W25qxx/w25qxx.c **** 			{
 616:Drivers/W25qxx/w25qxx.c **** 				w25qxx.Lock = 0;
 2006              		.loc 1 616 5 view .LVU451
 2007              		.loc 1 616 17 is_stmt 0 view .LVU452
 2008 00ce 0020     		movs	r0, #0
 2009 00d0 0A4B     		ldr	r3, .L133
 2010              	.LVL188:
 2011              		.loc 1 616 17 view .LVU453
 2012 00d2 83F82700 		strb	r0, [r3, #39]
 617:Drivers/W25qxx/w25qxx.c **** 				return 0;
 2013              		.loc 1 617 5 is_stmt 1 view .LVU454
 2014              	.L122:
 2015              		.loc 1 617 5 is_stmt 0 view .LVU455
ARM GAS  C:\Users\Andre\AppData\Local\Temp\cc6DUQzQ.s 			page 50


 2016              	.LBE6:
 2017              	.LBE7:
 618:Drivers/W25qxx/w25qxx.c **** 			}
 619:Drivers/W25qxx/w25qxx.c **** 		}
 620:Drivers/W25qxx/w25qxx.c **** 
 621:Drivers/W25qxx/w25qxx.c **** 		size = size - 256;
 622:Drivers/W25qxx/w25qxx.c **** 		WorkAddress = WorkAddress + 256;
 623:Drivers/W25qxx/w25qxx.c **** 	}
 624:Drivers/W25qxx/w25qxx.c **** 
 625:Drivers/W25qxx/w25qxx.c **** 	w25qxx.Lock = 0;
 626:Drivers/W25qxx/w25qxx.c **** 	return 1;
 627:Drivers/W25qxx/w25qxx.c **** }
 2018              		.loc 1 627 1 view .LVU456
 2019 00d6 40B0     		add	sp, sp, #256
 2020              	.LCFI16:
 2021              		.cfi_remember_state
 2022              		.cfi_def_cfa_offset 24
 2023              		@ sp needed
 2024 00d8 BDE8F081 		pop	{r4, r5, r6, r7, r8, pc}
 2025              	.LVL189:
 2026              	.L131:
 2027              	.LCFI17:
 2028              		.cfi_restore_state
 2029              	.LBB8:
 621:Drivers/W25qxx/w25qxx.c **** 		WorkAddress = WorkAddress + 256;
 2030              		.loc 1 621 3 is_stmt 1 discriminator 2 view .LVU457
 621:Drivers/W25qxx/w25qxx.c **** 		WorkAddress = WorkAddress + 256;
 2031              		.loc 1 621 8 is_stmt 0 discriminator 2 view .LVU458
 2032 00dc A6F58076 		sub	r6, r6, #256
 2033              	.LVL190:
 621:Drivers/W25qxx/w25qxx.c **** 		WorkAddress = WorkAddress + 256;
 2034              		.loc 1 621 8 discriminator 2 view .LVU459
 2035 00e0 B6B2     		uxth	r6, r6
 2036              	.LVL191:
 622:Drivers/W25qxx/w25qxx.c **** 	}
 2037              		.loc 1 622 3 is_stmt 1 discriminator 2 view .LVU460
 622:Drivers/W25qxx/w25qxx.c **** 	}
 2038              		.loc 1 622 15 is_stmt 0 discriminator 2 view .LVU461
 2039 00e2 05F58075 		add	r5, r5, #256
 2040              	.LVL192:
 589:Drivers/W25qxx/w25qxx.c **** 	{
 2041              		.loc 1 589 39 is_stmt 1 discriminator 2 view .LVU462
 589:Drivers/W25qxx/w25qxx.c **** 	{
 2042              		.loc 1 589 40 is_stmt 0 discriminator 2 view .LVU463
 2043 00e6 08F10108 		add	r8, r8, #1
 2044              	.LVL193:
 589:Drivers/W25qxx/w25qxx.c **** 	{
 2045              		.loc 1 589 40 discriminator 2 view .LVU464
 2046 00ea 1FFA88F8 		uxth	r8, r8
 2047              	.LVL194:
 589:Drivers/W25qxx/w25qxx.c **** 	{
 2048              		.loc 1 589 40 discriminator 2 view .LVU465
 2049 00ee B4E7     		b	.L117
 2050              	.LVL195:
 2051              	.L129:
 589:Drivers/W25qxx/w25qxx.c **** 	{
 2052              		.loc 1 589 40 discriminator 2 view .LVU466
ARM GAS  C:\Users\Andre\AppData\Local\Temp\cc6DUQzQ.s 			page 51


 2053              	.LBE8:
 625:Drivers/W25qxx/w25qxx.c **** 	return 1;
 2054              		.loc 1 625 2 is_stmt 1 view .LVU467
 625:Drivers/W25qxx/w25qxx.c **** 	return 1;
 2055              		.loc 1 625 14 is_stmt 0 view .LVU468
 2056 00f0 024B     		ldr	r3, .L133
 2057 00f2 0022     		movs	r2, #0
 2058 00f4 83F82720 		strb	r2, [r3, #39]
 626:Drivers/W25qxx/w25qxx.c **** }
 2059              		.loc 1 626 2 is_stmt 1 view .LVU469
 626:Drivers/W25qxx/w25qxx.c **** }
 2060              		.loc 1 626 9 is_stmt 0 view .LVU470
 2061 00f8 0120     		movs	r0, #1
 2062 00fa ECE7     		b	.L122
 2063              	.L134:
 2064              		.align	2
 2065              	.L133:
 2066 00fc 00000000 		.word	w25qxx
 2067 0100 00000240 		.word	1073872896
 2068 0104 00000000 		.word	hspi1
 2069              		.cfi_endproc
 2070              	.LFE253:
 2072              		.section	.text.W25qxx_IsEmptyBlock,"ax",%progbits
 2073              		.align	1
 2074              		.global	W25qxx_IsEmptyBlock
 2075              		.syntax unified
 2076              		.thumb
 2077              		.thumb_func
 2078              		.fpu fpv4-sp-d16
 2080              	W25qxx_IsEmptyBlock:
 2081              	.LVL196:
 2082              	.LFB254:
 628:Drivers/W25qxx/w25qxx.c **** 
 629:Drivers/W25qxx/w25qxx.c **** //#################################################################################################
 630:Drivers/W25qxx/w25qxx.c **** uint8_t W25qxx_IsEmptyBlock(uint32_t Block_Address, uint32_t OffsetInByte)
 631:Drivers/W25qxx/w25qxx.c **** {
 2083              		.loc 1 631 1 is_stmt 1 view -0
 2084              		.cfi_startproc
 2085              		@ args = 0, pretend = 0, frame = 256
 2086              		@ frame_needed = 0, uses_anonymous_args = 0
 2087              		.loc 1 631 1 is_stmt 0 view .LVU472
 2088 0000 2DE9F041 		push	{r4, r5, r6, r7, r8, lr}
 2089              	.LCFI18:
 2090              		.cfi_def_cfa_offset 24
 2091              		.cfi_offset 4, -24
 2092              		.cfi_offset 5, -20
 2093              		.cfi_offset 6, -16
 2094              		.cfi_offset 7, -12
 2095              		.cfi_offset 8, -8
 2096              		.cfi_offset 14, -4
 2097 0004 C0B0     		sub	sp, sp, #256
 2098              	.LCFI19:
 2099              		.cfi_def_cfa_offset 280
 2100 0006 0746     		mov	r7, r0
 2101 0008 0C46     		mov	r4, r1
 632:Drivers/W25qxx/w25qxx.c **** 	while(w25qxx.Lock == 1)
 2102              		.loc 1 632 2 is_stmt 1 view .LVU473
ARM GAS  C:\Users\Andre\AppData\Local\Temp\cc6DUQzQ.s 			page 52


 2103              	.LVL197:
 2104              	.L136:
 2105              		.loc 1 632 7 view .LVU474
 2106              		.loc 1 632 14 is_stmt 0 view .LVU475
 2107 000a 3B4B     		ldr	r3, .L154
 2108 000c 93F82730 		ldrb	r3, [r3, #39]	@ zero_extendqisi2
 2109              		.loc 1 632 7 view .LVU476
 2110 0010 012B     		cmp	r3, #1
 2111 0012 03D1     		bne	.L149
 633:Drivers/W25qxx/w25qxx.c **** 	W25qxx_Delay(1);
 2112              		.loc 1 633 2 is_stmt 1 view .LVU477
 2113 0014 0120     		movs	r0, #1
 2114 0016 FFF7FEFF 		bl	HAL_Delay
 2115              	.LVL198:
 2116 001a F6E7     		b	.L136
 2117              	.L149:
 634:Drivers/W25qxx/w25qxx.c **** 
 635:Drivers/W25qxx/w25qxx.c **** 	w25qxx.Lock = 1;
 2118              		.loc 1 635 2 view .LVU478
 2119              		.loc 1 635 14 is_stmt 0 view .LVU479
 2120 001c 364D     		ldr	r5, .L154
 2121 001e 0123     		movs	r3, #1
 2122 0020 85F82730 		strb	r3, [r5, #39]
 636:Drivers/W25qxx/w25qxx.c **** 
 637:Drivers/W25qxx/w25qxx.c **** 	uint8_t	pBuffer[256] = {0,};
 2123              		.loc 1 637 2 is_stmt 1 view .LVU480
 2124              		.loc 1 637 10 is_stmt 0 view .LVU481
 2125 0024 0021     		movs	r1, #0
 2126 0026 0091     		str	r1, [sp]
 2127 0028 FC22     		movs	r2, #252
 2128 002a 01A8     		add	r0, sp, #4
 2129 002c FFF7FEFF 		bl	memset
 2130              	.LVL199:
 638:Drivers/W25qxx/w25qxx.c **** 	uint32_t WorkAddress = 0;
 2131              		.loc 1 638 2 is_stmt 1 view .LVU482
 639:Drivers/W25qxx/w25qxx.c **** 	uint16_t s_buf = 256;
 2132              		.loc 1 639 2 view .LVU483
 640:Drivers/W25qxx/w25qxx.c **** 	uint32_t size = 0;
 2133              		.loc 1 640 2 view .LVU484
 641:Drivers/W25qxx/w25qxx.c **** 
 642:Drivers/W25qxx/w25qxx.c **** 	size = w25qxx.BlockSize - OffsetInByte;
 2134              		.loc 1 642 2 view .LVU485
 2135              		.loc 1 642 15 is_stmt 0 view .LVU486
 2136 0030 AD69     		ldr	r5, [r5, #24]
 2137              		.loc 1 642 7 view .LVU487
 2138 0032 2E1B     		subs	r6, r5, r4
 2139              	.LVL200:
 643:Drivers/W25qxx/w25qxx.c **** 	WorkAddress = (OffsetInByte + Block_Address * w25qxx.BlockSize);
 2140              		.loc 1 643 2 is_stmt 1 view .LVU488
 2141              		.loc 1 643 14 is_stmt 0 view .LVU489
 2142 0034 07FB0545 		mla	r5, r7, r5, r4
 2143              	.LVL201:
 644:Drivers/W25qxx/w25qxx.c **** 
 645:Drivers/W25qxx/w25qxx.c **** //char buf2[64] = {0,};
 646:Drivers/W25qxx/w25qxx.c **** //snprintf(buf2, 64, "SIZEB %lu \n", size);
 647:Drivers/W25qxx/w25qxx.c **** //HAL_UART_Transmit(&huart1, (uint8_t*)buf2, strlen(buf2), 100);
 648:Drivers/W25qxx/w25qxx.c **** 
ARM GAS  C:\Users\Andre\AppData\Local\Temp\cc6DUQzQ.s 			page 53


 649:Drivers/W25qxx/w25qxx.c **** 	uint16_t cikl = size / 256;
 2144              		.loc 1 649 2 is_stmt 1 view .LVU490
 2145              		.loc 1 649 11 is_stmt 0 view .LVU491
 2146 0038 C6F30F28 		ubfx	r8, r6, #8, #16
 2147              	.LVL202:
 650:Drivers/W25qxx/w25qxx.c **** 	uint16_t cikl2 = size % 256;
 2148              		.loc 1 650 2 is_stmt 1 view .LVU492
 2149              		.loc 1 650 11 is_stmt 0 view .LVU493
 2150 003c F3B2     		uxtb	r3, r6
 2151              	.LVL203:
 651:Drivers/W25qxx/w25qxx.c **** 	uint16_t count_cikle = 0;
 2152              		.loc 1 651 2 is_stmt 1 view .LVU494
 652:Drivers/W25qxx/w25qxx.c **** 
 653:Drivers/W25qxx/w25qxx.c **** 	if(size <= 256)
 2153              		.loc 1 653 2 view .LVU495
 2154              		.loc 1 653 4 is_stmt 0 view .LVU496
 2155 003e B6F5807F 		cmp	r6, #256
 2156 0042 05D9     		bls	.L147
 654:Drivers/W25qxx/w25qxx.c **** 	{
 655:Drivers/W25qxx/w25qxx.c **** 		count_cikle = 1;
 656:Drivers/W25qxx/w25qxx.c **** 		//HAL_UART_Transmit(&huart1, (uint8_t*)"1\n", 2, 100);
 657:Drivers/W25qxx/w25qxx.c **** 	}
 658:Drivers/W25qxx/w25qxx.c **** 	else if(cikl2 == 0)
 2157              		.loc 1 658 7 is_stmt 1 view .LVU497
 2158              		.loc 1 658 9 is_stmt 0 view .LVU498
 2159 0044 33B1     		cbz	r3, .L138
 659:Drivers/W25qxx/w25qxx.c **** 	{
 660:Drivers/W25qxx/w25qxx.c **** 		count_cikle = cikl;
 661:Drivers/W25qxx/w25qxx.c **** 		//HAL_UART_Transmit(&huart1, (uint8_t*)"2\n", 2, 100);
 662:Drivers/W25qxx/w25qxx.c **** 	}
 663:Drivers/W25qxx/w25qxx.c **** 	else
 664:Drivers/W25qxx/w25qxx.c **** 	{
 665:Drivers/W25qxx/w25qxx.c **** 		count_cikle = cikl + 1;
 2160              		.loc 1 665 3 is_stmt 1 view .LVU499
 2161              		.loc 1 665 15 is_stmt 0 view .LVU500
 2162 0046 08F10108 		add	r8, r8, #1
 2163              	.LVL204:
 2164              		.loc 1 665 15 view .LVU501
 2165 004a 1FFA88F8 		uxth	r8, r8
 2166              	.LVL205:
 2167              		.loc 1 665 15 view .LVU502
 2168 004e 01E0     		b	.L138
 2169              	.LVL206:
 2170              	.L147:
 655:Drivers/W25qxx/w25qxx.c **** 		//HAL_UART_Transmit(&huart1, (uint8_t*)"1\n", 2, 100);
 2171              		.loc 1 655 15 view .LVU503
 2172 0050 4FF00108 		mov	r8, #1
 2173              	.LVL207:
 2174              	.L138:
 666:Drivers/W25qxx/w25qxx.c **** 		//HAL_UART_Transmit(&huart1, (uint8_t*)"3\n", 2, 100);
 667:Drivers/W25qxx/w25qxx.c **** 	}
 668:Drivers/W25qxx/w25qxx.c **** 
 669:Drivers/W25qxx/w25qxx.c **** 
 670:Drivers/W25qxx/w25qxx.c **** 	for(uint16_t i = 0; i < count_cikle; i++)
 2175              		.loc 1 670 2 is_stmt 1 view .LVU504
 2176              	.LBB9:
 2177              		.loc 1 670 6 view .LVU505
ARM GAS  C:\Users\Andre\AppData\Local\Temp\cc6DUQzQ.s 			page 54


 2178              		.loc 1 670 15 is_stmt 0 view .LVU506
 2179 0054 0027     		movs	r7, #0
 2180              	.LVL208:
 2181              		.loc 1 670 15 view .LVU507
 2182              	.LBE9:
 639:Drivers/W25qxx/w25qxx.c **** 	uint32_t size = 0;
 2183              		.loc 1 639 11 view .LVU508
 2184 0056 4FF48074 		mov	r4, #256
 2185              	.LVL209:
 2186              	.L139:
 2187              	.LBB12:
 2188              		.loc 1 670 22 is_stmt 1 discriminator 1 view .LVU509
 2189              		.loc 1 670 2 is_stmt 0 discriminator 1 view .LVU510
 2190 005a B845     		cmp	r8, r7
 2191 005c 45D9     		bls	.L150
 671:Drivers/W25qxx/w25qxx.c **** 	{
 672:Drivers/W25qxx/w25qxx.c **** 		W25QFLASH_CS_SELECT;
 2192              		.loc 1 672 3 is_stmt 1 view .LVU511
 2193 005e 0022     		movs	r2, #0
 2194 0060 4FF40041 		mov	r1, #32768
 2195 0064 2548     		ldr	r0, .L154+4
 2196 0066 FFF7FEFF 		bl	HAL_GPIO_WritePin
 2197              	.LVL210:
 673:Drivers/W25qxx/w25qxx.c **** 		W25qxx_Spi(W25_FAST_READ);
 2198              		.loc 1 673 3 view .LVU512
 2199 006a 0B20     		movs	r0, #11
 2200 006c FFF7FEFF 		bl	W25qxx_Spi
 2201              	.LVL211:
 674:Drivers/W25qxx/w25qxx.c **** 
 675:Drivers/W25qxx/w25qxx.c **** 		if(w25qxx.ID>=W25Q256)
 2202              		.loc 1 675 3 view .LVU513
 2203              		.loc 1 675 12 is_stmt 0 view .LVU514
 2204 0070 214B     		ldr	r3, .L154
 2205 0072 1B78     		ldrb	r3, [r3]	@ zero_extendqisi2
 2206              		.loc 1 675 5 view .LVU515
 2207 0074 082B     		cmp	r3, #8
 2208 0076 26D8     		bhi	.L151
 2209              	.L140:
 676:Drivers/W25qxx/w25qxx.c **** 			W25qxx_Spi((WorkAddress & 0xFF000000) >> 24);
 677:Drivers/W25qxx/w25qxx.c **** 
 678:Drivers/W25qxx/w25qxx.c **** 		W25qxx_Spi((WorkAddress & 0xFF0000) >> 16);
 2210              		.loc 1 678 3 is_stmt 1 view .LVU516
 2211 0078 C5F30740 		ubfx	r0, r5, #16, #8
 2212 007c FFF7FEFF 		bl	W25qxx_Spi
 2213              	.LVL212:
 679:Drivers/W25qxx/w25qxx.c **** 		W25qxx_Spi((WorkAddress & 0xFF00) >> 8);
 2214              		.loc 1 679 3 view .LVU517
 2215 0080 C5F30720 		ubfx	r0, r5, #8, #8
 2216 0084 FFF7FEFF 		bl	W25qxx_Spi
 2217              	.LVL213:
 680:Drivers/W25qxx/w25qxx.c **** 		W25qxx_Spi(WorkAddress & 0xFF);
 2218              		.loc 1 680 3 view .LVU518
 2219 0088 E8B2     		uxtb	r0, r5
 2220 008a FFF7FEFF 		bl	W25qxx_Spi
 2221              	.LVL214:
 681:Drivers/W25qxx/w25qxx.c **** 
 682:Drivers/W25qxx/w25qxx.c **** 		W25qxx_Spi(0);
ARM GAS  C:\Users\Andre\AppData\Local\Temp\cc6DUQzQ.s 			page 55


 2222              		.loc 1 682 3 view .LVU519
 2223 008e 0020     		movs	r0, #0
 2224 0090 FFF7FEFF 		bl	W25qxx_Spi
 2225              	.LVL215:
 683:Drivers/W25qxx/w25qxx.c **** 
 684:Drivers/W25qxx/w25qxx.c **** 		if(size < 256) s_buf = size;
 2226              		.loc 1 684 3 view .LVU520
 2227              		.loc 1 684 5 is_stmt 0 view .LVU521
 2228 0094 FF2E     		cmp	r6, #255
 2229 0096 00D8     		bhi	.L141
 2230              		.loc 1 684 18 is_stmt 1 discriminator 1 view .LVU522
 2231              		.loc 1 684 24 is_stmt 0 discriminator 1 view .LVU523
 2232 0098 B4B2     		uxth	r4, r6
 2233              	.LVL216:
 2234              	.L141:
 685:Drivers/W25qxx/w25qxx.c **** 
 686:Drivers/W25qxx/w25qxx.c **** //snprintf(buf2, 64, "RECIVB %lu %d %d %lu\n", size, s_buf, i, WorkAddress);
 687:Drivers/W25qxx/w25qxx.c **** //HAL_UART_Transmit(&huart1, (uint8_t*)buf2, strlen(buf2), 100);
 688:Drivers/W25qxx/w25qxx.c **** 
 689:Drivers/W25qxx/w25qxx.c **** 		HAL_SPI_Receive(W25QXX_SPI_PTR, pBuffer, s_buf, 100);
 2235              		.loc 1 689 3 is_stmt 1 view .LVU524
 2236 009a 6423     		movs	r3, #100
 2237 009c 2246     		mov	r2, r4
 2238 009e 6946     		mov	r1, sp
 2239 00a0 1748     		ldr	r0, .L154+8
 2240 00a2 FFF7FEFF 		bl	HAL_SPI_Receive
 2241              	.LVL217:
 690:Drivers/W25qxx/w25qxx.c **** 
 691:Drivers/W25qxx/w25qxx.c **** 		W25QFLASH_CS_UNSELECT;
 2242              		.loc 1 691 3 view .LVU525
 2243 00a6 0122     		movs	r2, #1
 2244 00a8 4FF40041 		mov	r1, #32768
 2245 00ac 1348     		ldr	r0, .L154+4
 2246 00ae FFF7FEFF 		bl	HAL_GPIO_WritePin
 2247              	.LVL218:
 692:Drivers/W25qxx/w25qxx.c **** 
 693:Drivers/W25qxx/w25qxx.c **** 		for(uint16_t i = 0; i < s_buf; i++)
 2248              		.loc 1 693 3 view .LVU526
 2249              	.LBB10:
 2250              		.loc 1 693 7 view .LVU527
 2251              		.loc 1 693 16 is_stmt 0 view .LVU528
 2252 00b2 0023     		movs	r3, #0
 2253              	.LVL219:
 2254              	.L142:
 2255              		.loc 1 693 23 is_stmt 1 discriminator 1 view .LVU529
 2256              		.loc 1 693 3 is_stmt 0 discriminator 1 view .LVU530
 2257 00b4 9C42     		cmp	r4, r3
 2258 00b6 11D9     		bls	.L152
 694:Drivers/W25qxx/w25qxx.c **** 		{
 695:Drivers/W25qxx/w25qxx.c **** 			if(pBuffer[i] != 0xFF)
 2259              		.loc 1 695 4 is_stmt 1 view .LVU531
 2260              		.loc 1 695 14 is_stmt 0 view .LVU532
 2261 00b8 1DF80320 		ldrb	r2, [sp, r3]	@ zero_extendqisi2
 2262              		.loc 1 695 6 view .LVU533
 2263 00bc FF2A     		cmp	r2, #255
 2264 00be 06D1     		bne	.L153
 693:Drivers/W25qxx/w25qxx.c **** 		{
ARM GAS  C:\Users\Andre\AppData\Local\Temp\cc6DUQzQ.s 			page 56


 2265              		.loc 1 693 34 is_stmt 1 discriminator 2 view .LVU534
 693:Drivers/W25qxx/w25qxx.c **** 		{
 2266              		.loc 1 693 35 is_stmt 0 discriminator 2 view .LVU535
 2267 00c0 0133     		adds	r3, r3, #1
 2268              	.LVL220:
 693:Drivers/W25qxx/w25qxx.c **** 		{
 2269              		.loc 1 693 35 discriminator 2 view .LVU536
 2270 00c2 9BB2     		uxth	r3, r3
 2271              	.LVL221:
 693:Drivers/W25qxx/w25qxx.c **** 		{
 2272              		.loc 1 693 35 discriminator 2 view .LVU537
 2273 00c4 F6E7     		b	.L142
 2274              	.LVL222:
 2275              	.L151:
 693:Drivers/W25qxx/w25qxx.c **** 		{
 2276              		.loc 1 693 35 discriminator 2 view .LVU538
 2277              	.LBE10:
 676:Drivers/W25qxx/w25qxx.c **** 
 2278              		.loc 1 676 4 is_stmt 1 view .LVU539
 2279 00c6 280E     		lsrs	r0, r5, #24
 2280 00c8 FFF7FEFF 		bl	W25qxx_Spi
 2281              	.LVL223:
 2282 00cc D4E7     		b	.L140
 2283              	.LVL224:
 2284              	.L153:
 2285              	.LBB11:
 696:Drivers/W25qxx/w25qxx.c **** 			{
 697:Drivers/W25qxx/w25qxx.c **** 				w25qxx.Lock = 0;
 2286              		.loc 1 697 5 view .LVU540
 2287              		.loc 1 697 17 is_stmt 0 view .LVU541
 2288 00ce 0020     		movs	r0, #0
 2289 00d0 094B     		ldr	r3, .L154
 2290              	.LVL225:
 2291              		.loc 1 697 17 view .LVU542
 2292 00d2 83F82700 		strb	r0, [r3, #39]
 698:Drivers/W25qxx/w25qxx.c **** 				return 0;
 2293              		.loc 1 698 5 is_stmt 1 view .LVU543
 2294              	.L144:
 2295              		.loc 1 698 5 is_stmt 0 view .LVU544
 2296              	.LBE11:
 2297              	.LBE12:
 699:Drivers/W25qxx/w25qxx.c **** 			}
 700:Drivers/W25qxx/w25qxx.c **** 		}
 701:Drivers/W25qxx/w25qxx.c **** 
 702:Drivers/W25qxx/w25qxx.c **** 		size = size - 256;
 703:Drivers/W25qxx/w25qxx.c **** 		WorkAddress = WorkAddress + 256;
 704:Drivers/W25qxx/w25qxx.c **** 	}
 705:Drivers/W25qxx/w25qxx.c **** 
 706:Drivers/W25qxx/w25qxx.c **** 	w25qxx.Lock = 0;
 707:Drivers/W25qxx/w25qxx.c **** 	return 1;
 708:Drivers/W25qxx/w25qxx.c **** }
 2298              		.loc 1 708 1 view .LVU545
 2299 00d6 40B0     		add	sp, sp, #256
 2300              	.LCFI20:
 2301              		.cfi_remember_state
 2302              		.cfi_def_cfa_offset 24
 2303              		@ sp needed
ARM GAS  C:\Users\Andre\AppData\Local\Temp\cc6DUQzQ.s 			page 57


 2304 00d8 BDE8F081 		pop	{r4, r5, r6, r7, r8, pc}
 2305              	.LVL226:
 2306              	.L152:
 2307              	.LCFI21:
 2308              		.cfi_restore_state
 2309              	.LBB13:
 702:Drivers/W25qxx/w25qxx.c **** 		WorkAddress = WorkAddress + 256;
 2310              		.loc 1 702 3 is_stmt 1 discriminator 2 view .LVU546
 702:Drivers/W25qxx/w25qxx.c **** 		WorkAddress = WorkAddress + 256;
 2311              		.loc 1 702 8 is_stmt 0 discriminator 2 view .LVU547
 2312 00dc A6F58076 		sub	r6, r6, #256
 2313              	.LVL227:
 703:Drivers/W25qxx/w25qxx.c **** 	}
 2314              		.loc 1 703 3 is_stmt 1 discriminator 2 view .LVU548
 703:Drivers/W25qxx/w25qxx.c **** 	}
 2315              		.loc 1 703 15 is_stmt 0 discriminator 2 view .LVU549
 2316 00e0 05F58075 		add	r5, r5, #256
 2317              	.LVL228:
 670:Drivers/W25qxx/w25qxx.c **** 	{
 2318              		.loc 1 670 39 is_stmt 1 discriminator 2 view .LVU550
 670:Drivers/W25qxx/w25qxx.c **** 	{
 2319              		.loc 1 670 40 is_stmt 0 discriminator 2 view .LVU551
 2320 00e4 0137     		adds	r7, r7, #1
 2321              	.LVL229:
 670:Drivers/W25qxx/w25qxx.c **** 	{
 2322              		.loc 1 670 40 discriminator 2 view .LVU552
 2323 00e6 BFB2     		uxth	r7, r7
 2324              	.LVL230:
 670:Drivers/W25qxx/w25qxx.c **** 	{
 2325              		.loc 1 670 40 discriminator 2 view .LVU553
 2326 00e8 B7E7     		b	.L139
 2327              	.LVL231:
 2328              	.L150:
 670:Drivers/W25qxx/w25qxx.c **** 	{
 2329              		.loc 1 670 40 discriminator 2 view .LVU554
 2330              	.LBE13:
 706:Drivers/W25qxx/w25qxx.c **** 	return 1;
 2331              		.loc 1 706 2 is_stmt 1 view .LVU555
 706:Drivers/W25qxx/w25qxx.c **** 	return 1;
 2332              		.loc 1 706 14 is_stmt 0 view .LVU556
 2333 00ea 034B     		ldr	r3, .L154
 2334 00ec 0022     		movs	r2, #0
 2335 00ee 83F82720 		strb	r2, [r3, #39]
 707:Drivers/W25qxx/w25qxx.c **** }
 2336              		.loc 1 707 2 is_stmt 1 view .LVU557
 707:Drivers/W25qxx/w25qxx.c **** }
 2337              		.loc 1 707 9 is_stmt 0 view .LVU558
 2338 00f2 0120     		movs	r0, #1
 2339 00f4 EFE7     		b	.L144
 2340              	.L155:
 2341 00f6 00BF     		.align	2
 2342              	.L154:
 2343 00f8 00000000 		.word	w25qxx
 2344 00fc 00000240 		.word	1073872896
 2345 0100 00000000 		.word	hspi1
 2346              		.cfi_endproc
 2347              	.LFE254:
ARM GAS  C:\Users\Andre\AppData\Local\Temp\cc6DUQzQ.s 			page 58


 2349              		.section	.text.W25qxx_WriteByte,"ax",%progbits
 2350              		.align	1
 2351              		.global	W25qxx_WriteByte
 2352              		.syntax unified
 2353              		.thumb
 2354              		.thumb_func
 2355              		.fpu fpv4-sp-d16
 2357              	W25qxx_WriteByte:
 2358              	.LVL232:
 2359              	.LFB255:
 709:Drivers/W25qxx/w25qxx.c **** 
 710:Drivers/W25qxx/w25qxx.c **** //#################################################################################################
 711:Drivers/W25qxx/w25qxx.c **** void W25qxx_WriteByte(uint8_t byte, uint32_t addr)
 712:Drivers/W25qxx/w25qxx.c **** {
 2360              		.loc 1 712 1 is_stmt 1 view -0
 2361              		.cfi_startproc
 2362              		@ args = 0, pretend = 0, frame = 0
 2363              		@ frame_needed = 0, uses_anonymous_args = 0
 2364              		.loc 1 712 1 is_stmt 0 view .LVU560
 2365 0000 70B5     		push	{r4, r5, r6, lr}
 2366              	.LCFI22:
 2367              		.cfi_def_cfa_offset 16
 2368              		.cfi_offset 4, -16
 2369              		.cfi_offset 5, -12
 2370              		.cfi_offset 6, -8
 2371              		.cfi_offset 14, -4
 2372 0002 0546     		mov	r5, r0
 2373 0004 0C46     		mov	r4, r1
 713:Drivers/W25qxx/w25qxx.c **** 	while(w25qxx.Lock == 1)
 2374              		.loc 1 713 2 is_stmt 1 view .LVU561
 2375              	.LVL233:
 2376              	.L157:
 2377              		.loc 1 713 7 view .LVU562
 2378              		.loc 1 713 14 is_stmt 0 view .LVU563
 2379 0006 1E4B     		ldr	r3, .L163
 2380 0008 93F82730 		ldrb	r3, [r3, #39]	@ zero_extendqisi2
 2381              		.loc 1 713 7 view .LVU564
 2382 000c 012B     		cmp	r3, #1
 2383 000e 03D1     		bne	.L161
 714:Drivers/W25qxx/w25qxx.c **** 		W25qxx_Delay(1);
 2384              		.loc 1 714 3 is_stmt 1 view .LVU565
 2385 0010 0120     		movs	r0, #1
 2386 0012 FFF7FEFF 		bl	HAL_Delay
 2387              	.LVL234:
 2388 0016 F6E7     		b	.L157
 2389              	.L161:
 715:Drivers/W25qxx/w25qxx.c **** 
 716:Drivers/W25qxx/w25qxx.c **** 	w25qxx.Lock = 1;
 2390              		.loc 1 716 2 view .LVU566
 2391              		.loc 1 716 14 is_stmt 0 view .LVU567
 2392 0018 194E     		ldr	r6, .L163
 2393 001a 0123     		movs	r3, #1
 2394 001c 86F82730 		strb	r3, [r6, #39]
 717:Drivers/W25qxx/w25qxx.c **** 
 718:Drivers/W25qxx/w25qxx.c **** 	W25qxx_WaitForWriteEnd();
 2395              		.loc 1 718 2 is_stmt 1 view .LVU568
 2396 0020 FFF7FEFF 		bl	W25qxx_WaitForWriteEnd
ARM GAS  C:\Users\Andre\AppData\Local\Temp\cc6DUQzQ.s 			page 59


 2397              	.LVL235:
 719:Drivers/W25qxx/w25qxx.c **** 	W25qxx_WriteEnable();
 2398              		.loc 1 719 2 view .LVU569
 2399 0024 FFF7FEFF 		bl	W25qxx_WriteEnable
 2400              	.LVL236:
 720:Drivers/W25qxx/w25qxx.c **** 
 721:Drivers/W25qxx/w25qxx.c **** 	W25QFLASH_CS_SELECT;
 2401              		.loc 1 721 2 view .LVU570
 2402 0028 0022     		movs	r2, #0
 2403 002a 4FF40041 		mov	r1, #32768
 2404 002e 1548     		ldr	r0, .L163+4
 2405 0030 FFF7FEFF 		bl	HAL_GPIO_WritePin
 2406              	.LVL237:
 722:Drivers/W25qxx/w25qxx.c **** 
 723:Drivers/W25qxx/w25qxx.c **** 	W25qxx_Spi(W25_PAGE_PROGRAMM);
 2407              		.loc 1 723 2 view .LVU571
 2408 0034 0220     		movs	r0, #2
 2409 0036 FFF7FEFF 		bl	W25qxx_Spi
 2410              	.LVL238:
 724:Drivers/W25qxx/w25qxx.c **** 
 725:Drivers/W25qxx/w25qxx.c **** 	if(w25qxx.ID >= W25Q256)
 2411              		.loc 1 725 2 view .LVU572
 2412              		.loc 1 725 11 is_stmt 0 view .LVU573
 2413 003a 3378     		ldrb	r3, [r6]	@ zero_extendqisi2
 2414              		.loc 1 725 4 view .LVU574
 2415 003c 082B     		cmp	r3, #8
 2416 003e 1AD8     		bhi	.L162
 2417              	.L159:
 726:Drivers/W25qxx/w25qxx.c **** 		W25qxx_Spi((addr & 0xFF000000) >> 24);
 727:Drivers/W25qxx/w25qxx.c **** 
 728:Drivers/W25qxx/w25qxx.c **** 	W25qxx_Spi((addr & 0xFF0000) >> 16);
 2418              		.loc 1 728 2 is_stmt 1 view .LVU575
 2419 0040 C4F30740 		ubfx	r0, r4, #16, #8
 2420 0044 FFF7FEFF 		bl	W25qxx_Spi
 2421              	.LVL239:
 729:Drivers/W25qxx/w25qxx.c **** 	W25qxx_Spi((addr & 0xFF00) >> 8);
 2422              		.loc 1 729 2 view .LVU576
 2423 0048 C4F30720 		ubfx	r0, r4, #8, #8
 2424 004c FFF7FEFF 		bl	W25qxx_Spi
 2425              	.LVL240:
 730:Drivers/W25qxx/w25qxx.c **** 	W25qxx_Spi(addr & 0xFF);
 2426              		.loc 1 730 2 view .LVU577
 2427 0050 E0B2     		uxtb	r0, r4
 2428 0052 FFF7FEFF 		bl	W25qxx_Spi
 2429              	.LVL241:
 731:Drivers/W25qxx/w25qxx.c **** 
 732:Drivers/W25qxx/w25qxx.c **** 	W25qxx_Spi(byte);
 2430              		.loc 1 732 2 view .LVU578
 2431 0056 2846     		mov	r0, r5
 2432 0058 FFF7FEFF 		bl	W25qxx_Spi
 2433              	.LVL242:
 733:Drivers/W25qxx/w25qxx.c **** 
 734:Drivers/W25qxx/w25qxx.c **** 	W25QFLASH_CS_UNSELECT;
 2434              		.loc 1 734 2 view .LVU579
 2435 005c 0122     		movs	r2, #1
 2436 005e 4FF40041 		mov	r1, #32768
 2437 0062 0848     		ldr	r0, .L163+4
ARM GAS  C:\Users\Andre\AppData\Local\Temp\cc6DUQzQ.s 			page 60


 2438 0064 FFF7FEFF 		bl	HAL_GPIO_WritePin
 2439              	.LVL243:
 735:Drivers/W25qxx/w25qxx.c **** 
 736:Drivers/W25qxx/w25qxx.c **** 	W25qxx_WaitForWriteEnd();
 2440              		.loc 1 736 2 view .LVU580
 2441 0068 FFF7FEFF 		bl	W25qxx_WaitForWriteEnd
 2442              	.LVL244:
 737:Drivers/W25qxx/w25qxx.c **** 
 738:Drivers/W25qxx/w25qxx.c **** 	w25qxx.Lock = 0;
 2443              		.loc 1 738 2 view .LVU581
 2444              		.loc 1 738 14 is_stmt 0 view .LVU582
 2445 006c 044B     		ldr	r3, .L163
 2446 006e 0022     		movs	r2, #0
 2447 0070 83F82720 		strb	r2, [r3, #39]
 739:Drivers/W25qxx/w25qxx.c **** }
 2448              		.loc 1 739 1 view .LVU583
 2449 0074 70BD     		pop	{r4, r5, r6, pc}
 2450              	.LVL245:
 2451              	.L162:
 726:Drivers/W25qxx/w25qxx.c **** 
 2452              		.loc 1 726 3 is_stmt 1 view .LVU584
 2453 0076 200E     		lsrs	r0, r4, #24
 2454 0078 FFF7FEFF 		bl	W25qxx_Spi
 2455              	.LVL246:
 2456 007c E0E7     		b	.L159
 2457              	.L164:
 2458 007e 00BF     		.align	2
 2459              	.L163:
 2460 0080 00000000 		.word	w25qxx
 2461 0084 00000240 		.word	1073872896
 2462              		.cfi_endproc
 2463              	.LFE255:
 2465              		.section	.text.W25qxx_WritePage,"ax",%progbits
 2466              		.align	1
 2467              		.global	W25qxx_WritePage
 2468              		.syntax unified
 2469              		.thumb
 2470              		.thumb_func
 2471              		.fpu fpv4-sp-d16
 2473              	W25qxx_WritePage:
 2474              	.LVL247:
 2475              	.LFB256:
 740:Drivers/W25qxx/w25qxx.c **** 
 741:Drivers/W25qxx/w25qxx.c **** //#################################################################################################
 742:Drivers/W25qxx/w25qxx.c **** void W25qxx_WritePage(uint8_t *pBuffer, uint32_t Page_Address, uint32_t OffsetInByte, uint32_t NumB
 743:Drivers/W25qxx/w25qxx.c **** {
 2476              		.loc 1 743 1 view -0
 2477              		.cfi_startproc
 2478              		@ args = 0, pretend = 0, frame = 0
 2479              		@ frame_needed = 0, uses_anonymous_args = 0
 2480              		.loc 1 743 1 is_stmt 0 view .LVU586
 2481 0000 2DE9F041 		push	{r4, r5, r6, r7, r8, lr}
 2482              	.LCFI23:
 2483              		.cfi_def_cfa_offset 24
 2484              		.cfi_offset 4, -24
 2485              		.cfi_offset 5, -20
 2486              		.cfi_offset 6, -16
ARM GAS  C:\Users\Andre\AppData\Local\Temp\cc6DUQzQ.s 			page 61


 2487              		.cfi_offset 7, -12
 2488              		.cfi_offset 8, -8
 2489              		.cfi_offset 14, -4
 2490 0004 0746     		mov	r7, r0
 2491 0006 8846     		mov	r8, r1
 2492 0008 1646     		mov	r6, r2
 2493 000a 1D46     		mov	r5, r3
 744:Drivers/W25qxx/w25qxx.c **** 	while(w25qxx.Lock == 1)
 2494              		.loc 1 744 2 is_stmt 1 view .LVU587
 2495              	.LVL248:
 2496              	.L166:
 2497              		.loc 1 744 7 view .LVU588
 2498              		.loc 1 744 14 is_stmt 0 view .LVU589
 2499 000c 284C     		ldr	r4, .L175
 2500 000e 94F82740 		ldrb	r4, [r4, #39]	@ zero_extendqisi2
 2501              		.loc 1 744 7 view .LVU590
 2502 0012 012C     		cmp	r4, #1
 2503 0014 03D1     		bne	.L173
 745:Drivers/W25qxx/w25qxx.c **** 		W25qxx_Delay(1);
 2504              		.loc 1 745 3 is_stmt 1 view .LVU591
 2505 0016 0120     		movs	r0, #1
 2506 0018 FFF7FEFF 		bl	HAL_Delay
 2507              	.LVL249:
 2508 001c F6E7     		b	.L166
 2509              	.L173:
 746:Drivers/W25qxx/w25qxx.c **** 
 747:Drivers/W25qxx/w25qxx.c **** 	w25qxx.Lock = 1;
 2510              		.loc 1 747 2 view .LVU592
 2511              		.loc 1 747 14 is_stmt 0 view .LVU593
 2512 001e 244B     		ldr	r3, .L175
 2513 0020 0122     		movs	r2, #1
 2514 0022 83F82720 		strb	r2, [r3, #39]
 748:Drivers/W25qxx/w25qxx.c **** 
 749:Drivers/W25qxx/w25qxx.c **** 	if(((NumByteToWrite_up_to_PageSize + OffsetInByte) > w25qxx.PageSize) || (NumByteToWrite_up_to_Pag
 2515              		.loc 1 749 2 is_stmt 1 view .LVU594
 2516              		.loc 1 749 37 is_stmt 0 view .LVU595
 2517 0026 AA19     		adds	r2, r5, r6
 2518              		.loc 1 749 61 view .LVU596
 2519 0028 5B89     		ldrh	r3, [r3, #10]
 2520              		.loc 1 749 4 view .LVU597
 2521 002a 9A42     		cmp	r2, r3
 2522 002c 00D8     		bhi	.L168
 2523              		.loc 1 749 72 discriminator 1 view .LVU598
 2524 002e 05B9     		cbnz	r5, .L169
 2525              	.L168:
 750:Drivers/W25qxx/w25qxx.c **** 		NumByteToWrite_up_to_PageSize = w25qxx.PageSize - OffsetInByte;
 2526              		.loc 1 750 3 is_stmt 1 view .LVU599
 2527              		.loc 1 750 33 is_stmt 0 view .LVU600
 2528 0030 9D1B     		subs	r5, r3, r6
 2529              	.LVL250:
 2530              	.L169:
 751:Drivers/W25qxx/w25qxx.c **** 
 752:Drivers/W25qxx/w25qxx.c **** 	if((OffsetInByte + NumByteToWrite_up_to_PageSize) > w25qxx.PageSize)
 2531              		.loc 1 752 2 is_stmt 1 view .LVU601
 2532              		.loc 1 752 19 is_stmt 0 view .LVU602
 2533 0032 AA19     		adds	r2, r5, r6
 2534              		.loc 1 752 4 view .LVU603
ARM GAS  C:\Users\Andre\AppData\Local\Temp\cc6DUQzQ.s 			page 62


 2535 0034 9342     		cmp	r3, r2
 2536 0036 00D2     		bcs	.L170
 753:Drivers/W25qxx/w25qxx.c **** 		NumByteToWrite_up_to_PageSize = w25qxx.PageSize - OffsetInByte;
 2537              		.loc 1 753 3 is_stmt 1 view .LVU604
 2538              		.loc 1 753 33 is_stmt 0 view .LVU605
 2539 0038 9D1B     		subs	r5, r3, r6
 2540              	.LVL251:
 2541              	.L170:
 754:Drivers/W25qxx/w25qxx.c **** 
 755:Drivers/W25qxx/w25qxx.c **** 
 756:Drivers/W25qxx/w25qxx.c **** 	W25qxx_WaitForWriteEnd();
 2542              		.loc 1 756 2 is_stmt 1 view .LVU606
 2543 003a FFF7FEFF 		bl	W25qxx_WaitForWriteEnd
 2544              	.LVL252:
 757:Drivers/W25qxx/w25qxx.c **** 
 758:Drivers/W25qxx/w25qxx.c **** 	W25qxx_WriteEnable();
 2545              		.loc 1 758 2 view .LVU607
 2546 003e FFF7FEFF 		bl	W25qxx_WriteEnable
 2547              	.LVL253:
 759:Drivers/W25qxx/w25qxx.c **** 
 760:Drivers/W25qxx/w25qxx.c **** 	W25QFLASH_CS_SELECT;
 2548              		.loc 1 760 2 view .LVU608
 2549 0042 0022     		movs	r2, #0
 2550 0044 4FF40041 		mov	r1, #32768
 2551 0048 1A48     		ldr	r0, .L175+4
 2552 004a FFF7FEFF 		bl	HAL_GPIO_WritePin
 2553              	.LVL254:
 761:Drivers/W25qxx/w25qxx.c **** 
 762:Drivers/W25qxx/w25qxx.c **** 	W25qxx_Spi(W25_PAGE_PROGRAMM);
 2554              		.loc 1 762 2 view .LVU609
 2555 004e 0220     		movs	r0, #2
 2556 0050 FFF7FEFF 		bl	W25qxx_Spi
 2557              	.LVL255:
 763:Drivers/W25qxx/w25qxx.c **** 
 764:Drivers/W25qxx/w25qxx.c **** 	Page_Address = (Page_Address * w25qxx.PageSize) + OffsetInByte;
 2558              		.loc 1 764 2 view .LVU610
 2559              		.loc 1 764 39 is_stmt 0 view .LVU611
 2560 0054 164B     		ldr	r3, .L175
 2561 0056 5A89     		ldrh	r2, [r3, #10]
 2562              		.loc 1 764 15 view .LVU612
 2563 0058 08FB0266 		mla	r6, r8, r2, r6
 2564              	.LVL256:
 765:Drivers/W25qxx/w25qxx.c **** 
 766:Drivers/W25qxx/w25qxx.c **** 	if(w25qxx.ID >= W25Q256)
 2565              		.loc 1 766 2 is_stmt 1 view .LVU613
 2566              		.loc 1 766 11 is_stmt 0 view .LVU614
 2567 005c 1B78     		ldrb	r3, [r3]	@ zero_extendqisi2
 2568              		.loc 1 766 4 view .LVU615
 2569 005e 082B     		cmp	r3, #8
 2570 0060 21D8     		bhi	.L174
 2571              	.L171:
 767:Drivers/W25qxx/w25qxx.c **** 		W25qxx_Spi((Page_Address & 0xFF000000) >> 24);
 768:Drivers/W25qxx/w25qxx.c **** 
 769:Drivers/W25qxx/w25qxx.c **** 	W25qxx_Spi((Page_Address & 0xFF0000) >> 16);
 2572              		.loc 1 769 2 is_stmt 1 view .LVU616
 2573 0062 C6F30740 		ubfx	r0, r6, #16, #8
 2574 0066 FFF7FEFF 		bl	W25qxx_Spi
ARM GAS  C:\Users\Andre\AppData\Local\Temp\cc6DUQzQ.s 			page 63


 2575              	.LVL257:
 770:Drivers/W25qxx/w25qxx.c **** 	W25qxx_Spi((Page_Address & 0xFF00) >> 8);
 2576              		.loc 1 770 2 view .LVU617
 2577 006a C6F30720 		ubfx	r0, r6, #8, #8
 2578 006e FFF7FEFF 		bl	W25qxx_Spi
 2579              	.LVL258:
 771:Drivers/W25qxx/w25qxx.c **** 	W25qxx_Spi(Page_Address & 0xFF);
 2580              		.loc 1 771 2 view .LVU618
 2581 0072 F0B2     		uxtb	r0, r6
 2582 0074 FFF7FEFF 		bl	W25qxx_Spi
 2583              	.LVL259:
 772:Drivers/W25qxx/w25qxx.c **** 
 773:Drivers/W25qxx/w25qxx.c **** 	HAL_SPI_Transmit(W25QXX_SPI_PTR, pBuffer, NumByteToWrite_up_to_PageSize, 100);
 2584              		.loc 1 773 2 view .LVU619
 2585 0078 6423     		movs	r3, #100
 2586 007a AAB2     		uxth	r2, r5
 2587 007c 3946     		mov	r1, r7
 2588 007e 0E48     		ldr	r0, .L175+8
 2589 0080 FFF7FEFF 		bl	HAL_SPI_Transmit
 2590              	.LVL260:
 774:Drivers/W25qxx/w25qxx.c **** 
 775:Drivers/W25qxx/w25qxx.c **** 	W25QFLASH_CS_UNSELECT;
 2591              		.loc 1 775 2 view .LVU620
 2592 0084 0122     		movs	r2, #1
 2593 0086 4FF40041 		mov	r1, #32768
 2594 008a 0A48     		ldr	r0, .L175+4
 2595 008c FFF7FEFF 		bl	HAL_GPIO_WritePin
 2596              	.LVL261:
 776:Drivers/W25qxx/w25qxx.c **** 
 777:Drivers/W25qxx/w25qxx.c **** 	W25qxx_WaitForWriteEnd();
 2597              		.loc 1 777 2 view .LVU621
 2598 0090 FFF7FEFF 		bl	W25qxx_WaitForWriteEnd
 2599              	.LVL262:
 778:Drivers/W25qxx/w25qxx.c **** 
 779:Drivers/W25qxx/w25qxx.c **** 	W25qxx_Delay(1);
 2600              		.loc 1 779 2 view .LVU622
 2601 0094 0120     		movs	r0, #1
 2602 0096 FFF7FEFF 		bl	HAL_Delay
 2603              	.LVL263:
 780:Drivers/W25qxx/w25qxx.c **** 	w25qxx.Lock = 0;
 2604              		.loc 1 780 2 view .LVU623
 2605              		.loc 1 780 14 is_stmt 0 view .LVU624
 2606 009a 054B     		ldr	r3, .L175
 2607 009c 0022     		movs	r2, #0
 2608 009e 83F82720 		strb	r2, [r3, #39]
 781:Drivers/W25qxx/w25qxx.c **** }
 2609              		.loc 1 781 1 view .LVU625
 2610 00a2 BDE8F081 		pop	{r4, r5, r6, r7, r8, pc}
 2611              	.LVL264:
 2612              	.L174:
 767:Drivers/W25qxx/w25qxx.c **** 
 2613              		.loc 1 767 3 is_stmt 1 view .LVU626
 2614 00a6 300E     		lsrs	r0, r6, #24
 2615 00a8 FFF7FEFF 		bl	W25qxx_Spi
 2616              	.LVL265:
 2617 00ac D9E7     		b	.L171
 2618              	.L176:
ARM GAS  C:\Users\Andre\AppData\Local\Temp\cc6DUQzQ.s 			page 64


 2619 00ae 00BF     		.align	2
 2620              	.L175:
 2621 00b0 00000000 		.word	w25qxx
 2622 00b4 00000240 		.word	1073872896
 2623 00b8 00000000 		.word	hspi1
 2624              		.cfi_endproc
 2625              	.LFE256:
 2627              		.section	.text.W25qxx_WriteSector,"ax",%progbits
 2628              		.align	1
 2629              		.global	W25qxx_WriteSector
 2630              		.syntax unified
 2631              		.thumb
 2632              		.thumb_func
 2633              		.fpu fpv4-sp-d16
 2635              	W25qxx_WriteSector:
 2636              	.LVL266:
 2637              	.LFB257:
 782:Drivers/W25qxx/w25qxx.c **** 
 783:Drivers/W25qxx/w25qxx.c **** //#################################################################################################
 784:Drivers/W25qxx/w25qxx.c **** void W25qxx_WriteSector(uint8_t *pBuffer, uint32_t Sector_Address, uint32_t OffsetInByte, uint32_t 
 785:Drivers/W25qxx/w25qxx.c **** {
 2638              		.loc 1 785 1 view -0
 2639              		.cfi_startproc
 2640              		@ args = 0, pretend = 0, frame = 0
 2641              		@ frame_needed = 0, uses_anonymous_args = 0
 2642              		.loc 1 785 1 is_stmt 0 view .LVU628
 2643 0000 F8B5     		push	{r3, r4, r5, r6, r7, lr}
 2644              	.LCFI24:
 2645              		.cfi_def_cfa_offset 24
 2646              		.cfi_offset 3, -24
 2647              		.cfi_offset 4, -20
 2648              		.cfi_offset 5, -16
 2649              		.cfi_offset 6, -12
 2650              		.cfi_offset 7, -8
 2651              		.cfi_offset 14, -4
 2652 0002 0746     		mov	r7, r0
 2653 0004 0846     		mov	r0, r1
 2654              	.LVL267:
 2655              		.loc 1 785 1 view .LVU629
 2656 0006 1546     		mov	r5, r2
 2657 0008 1C46     		mov	r4, r3
 786:Drivers/W25qxx/w25qxx.c **** 	if((NumByteToWrite_up_to_SectorSize > w25qxx.SectorSize) || (NumByteToWrite_up_to_SectorSize == 0)
 2658              		.loc 1 786 2 is_stmt 1 view .LVU630
 2659              		.loc 1 786 46 is_stmt 0 view .LVU631
 2660 000a 134B     		ldr	r3, .L185
 2661              	.LVL268:
 2662              		.loc 1 786 46 view .LVU632
 2663 000c 1B69     		ldr	r3, [r3, #16]
 2664              		.loc 1 786 4 view .LVU633
 2665 000e A342     		cmp	r3, r4
 2666 0010 02D3     		bcc	.L182
 2667              		.loc 1 786 59 discriminator 1 view .LVU634
 2668 0012 14B9     		cbnz	r4, .L178
 787:Drivers/W25qxx/w25qxx.c **** 		NumByteToWrite_up_to_SectorSize = w25qxx.SectorSize;
 2669              		.loc 1 787 35 view .LVU635
 2670 0014 1C46     		mov	r4, r3
 2671              	.LVL269:
ARM GAS  C:\Users\Andre\AppData\Local\Temp\cc6DUQzQ.s 			page 65


 2672              		.loc 1 787 35 view .LVU636
 2673 0016 00E0     		b	.L178
 2674              	.LVL270:
 2675              	.L182:
 2676              		.loc 1 787 35 view .LVU637
 2677 0018 1C46     		mov	r4, r3
 2678              	.LVL271:
 2679              	.L178:
 788:Drivers/W25qxx/w25qxx.c **** 
 789:Drivers/W25qxx/w25qxx.c **** 	uint32_t StartPage;
 2680              		.loc 1 789 2 is_stmt 1 view .LVU638
 790:Drivers/W25qxx/w25qxx.c **** 	int32_t	BytesToWrite;
 2681              		.loc 1 790 2 view .LVU639
 791:Drivers/W25qxx/w25qxx.c **** 	uint32_t LocalOffset;
 2682              		.loc 1 791 2 view .LVU640
 792:Drivers/W25qxx/w25qxx.c **** 
 793:Drivers/W25qxx/w25qxx.c **** 	if((OffsetInByte + NumByteToWrite_up_to_SectorSize) > w25qxx.SectorSize)
 2683              		.loc 1 793 2 view .LVU641
 2684              		.loc 1 793 19 is_stmt 0 view .LVU642
 2685 001a 6219     		adds	r2, r4, r5
 2686              	.LVL272:
 2687              		.loc 1 793 4 view .LVU643
 2688 001c 9342     		cmp	r3, r2
 2689 001e 00D2     		bcs	.L180
 794:Drivers/W25qxx/w25qxx.c **** 		BytesToWrite = w25qxx.SectorSize - OffsetInByte;
 2690              		.loc 1 794 3 is_stmt 1 view .LVU644
 2691              		.loc 1 794 36 is_stmt 0 view .LVU645
 2692 0020 5C1B     		subs	r4, r3, r5
 2693              	.LVL273:
 2694              	.L180:
 795:Drivers/W25qxx/w25qxx.c **** 	else
 796:Drivers/W25qxx/w25qxx.c **** 		BytesToWrite = NumByteToWrite_up_to_SectorSize;	
 797:Drivers/W25qxx/w25qxx.c **** 
 798:Drivers/W25qxx/w25qxx.c **** 	StartPage = W25qxx_SectorToPage(Sector_Address) + (OffsetInByte / w25qxx.PageSize);
 2695              		.loc 1 798 2 is_stmt 1 view .LVU646
 2696              		.loc 1 798 14 is_stmt 0 view .LVU647
 2697 0022 FFF7FEFF 		bl	W25qxx_SectorToPage
 2698              	.LVL274:
 2699              		.loc 1 798 74 view .LVU648
 2700 0026 0C4B     		ldr	r3, .L185
 2701 0028 5A89     		ldrh	r2, [r3, #10]
 2702              		.loc 1 798 66 view .LVU649
 2703 002a B5FBF2F3 		udiv	r3, r5, r2
 2704              		.loc 1 798 12 view .LVU650
 2705 002e C618     		adds	r6, r0, r3
 2706              	.LVL275:
 799:Drivers/W25qxx/w25qxx.c **** 	LocalOffset = OffsetInByte % w25qxx.PageSize;
 2707              		.loc 1 799 2 is_stmt 1 view .LVU651
 2708              		.loc 1 799 14 is_stmt 0 view .LVU652
 2709 0030 02FB1355 		mls	r5, r2, r3, r5
 2710              	.LVL276:
 2711              	.L181:
 800:Drivers/W25qxx/w25qxx.c **** 
 801:Drivers/W25qxx/w25qxx.c **** 	do
 2712              		.loc 1 801 2 is_stmt 1 discriminator 1 view .LVU653
 802:Drivers/W25qxx/w25qxx.c **** 	{		
 803:Drivers/W25qxx/w25qxx.c **** 		W25qxx_WritePage(pBuffer, StartPage, LocalOffset, BytesToWrite);
ARM GAS  C:\Users\Andre\AppData\Local\Temp\cc6DUQzQ.s 			page 66


 2713              		.loc 1 803 3 discriminator 1 view .LVU654
 2714 0034 2346     		mov	r3, r4
 2715 0036 2A46     		mov	r2, r5
 2716 0038 3146     		mov	r1, r6
 2717 003a 3846     		mov	r0, r7
 2718 003c FFF7FEFF 		bl	W25qxx_WritePage
 2719              	.LVL277:
 804:Drivers/W25qxx/w25qxx.c **** 		StartPage++;
 2720              		.loc 1 804 3 discriminator 1 view .LVU655
 2721              		.loc 1 804 12 is_stmt 0 discriminator 1 view .LVU656
 2722 0040 0136     		adds	r6, r6, #1
 2723              	.LVL278:
 805:Drivers/W25qxx/w25qxx.c **** 
 806:Drivers/W25qxx/w25qxx.c **** 		BytesToWrite -= w25qxx.PageSize - LocalOffset;
 2724              		.loc 1 806 3 is_stmt 1 discriminator 1 view .LVU657
 2725              		.loc 1 806 25 is_stmt 0 discriminator 1 view .LVU658
 2726 0042 054B     		ldr	r3, .L185
 2727 0044 5B89     		ldrh	r3, [r3, #10]
 2728              		.loc 1 806 16 discriminator 1 view .LVU659
 2729 0046 EA1A     		subs	r2, r5, r3
 2730 0048 1444     		add	r4, r4, r2
 2731              	.LVL279:
 807:Drivers/W25qxx/w25qxx.c **** 		//pBuffer += w25qxx.PageSize;
 808:Drivers/W25qxx/w25qxx.c **** 		pBuffer += w25qxx.PageSize - LocalOffset;
 2732              		.loc 1 808 3 is_stmt 1 discriminator 1 view .LVU660
 2733              		.loc 1 808 30 is_stmt 0 discriminator 1 view .LVU661
 2734 004a 5B1B     		subs	r3, r3, r5
 2735              		.loc 1 808 11 discriminator 1 view .LVU662
 2736 004c 1F44     		add	r7, r7, r3
 2737              	.LVL280:
 809:Drivers/W25qxx/w25qxx.c **** 		LocalOffset = 0;
 2738              		.loc 1 809 3 is_stmt 1 discriminator 1 view .LVU663
 810:Drivers/W25qxx/w25qxx.c **** 	}
 811:Drivers/W25qxx/w25qxx.c **** 	while(BytesToWrite > 0);
 2739              		.loc 1 811 7 discriminator 1 view .LVU664
 809:Drivers/W25qxx/w25qxx.c **** 		LocalOffset = 0;
 2740              		.loc 1 809 15 is_stmt 0 discriminator 1 view .LVU665
 2741 004e 0025     		movs	r5, #0
 2742              		.loc 1 811 2 discriminator 1 view .LVU666
 2743 0050 AC42     		cmp	r4, r5
 2744 0052 EFDC     		bgt	.L181
 812:Drivers/W25qxx/w25qxx.c **** }
 2745              		.loc 1 812 1 view .LVU667
 2746 0054 F8BD     		pop	{r3, r4, r5, r6, r7, pc}
 2747              	.LVL281:
 2748              	.L186:
 2749              		.loc 1 812 1 view .LVU668
 2750 0056 00BF     		.align	2
 2751              	.L185:
 2752 0058 00000000 		.word	w25qxx
 2753              		.cfi_endproc
 2754              	.LFE257:
 2756              		.section	.text.W25qxx_WriteBlock,"ax",%progbits
 2757              		.align	1
 2758              		.global	W25qxx_WriteBlock
 2759              		.syntax unified
 2760              		.thumb
ARM GAS  C:\Users\Andre\AppData\Local\Temp\cc6DUQzQ.s 			page 67


 2761              		.thumb_func
 2762              		.fpu fpv4-sp-d16
 2764              	W25qxx_WriteBlock:
 2765              	.LVL282:
 2766              	.LFB258:
 813:Drivers/W25qxx/w25qxx.c **** 
 814:Drivers/W25qxx/w25qxx.c **** //#################################################################################################
 815:Drivers/W25qxx/w25qxx.c **** void W25qxx_WriteBlock(uint8_t* pBuffer, uint32_t Block_Address, uint32_t OffsetInByte, uint32_t Nu
 816:Drivers/W25qxx/w25qxx.c **** {
 2767              		.loc 1 816 1 is_stmt 1 view -0
 2768              		.cfi_startproc
 2769              		@ args = 0, pretend = 0, frame = 0
 2770              		@ frame_needed = 0, uses_anonymous_args = 0
 2771              		.loc 1 816 1 is_stmt 0 view .LVU670
 2772 0000 F8B5     		push	{r3, r4, r5, r6, r7, lr}
 2773              	.LCFI25:
 2774              		.cfi_def_cfa_offset 24
 2775              		.cfi_offset 3, -24
 2776              		.cfi_offset 4, -20
 2777              		.cfi_offset 5, -16
 2778              		.cfi_offset 6, -12
 2779              		.cfi_offset 7, -8
 2780              		.cfi_offset 14, -4
 2781 0002 0746     		mov	r7, r0
 2782 0004 0846     		mov	r0, r1
 2783              	.LVL283:
 2784              		.loc 1 816 1 view .LVU671
 2785 0006 1546     		mov	r5, r2
 2786 0008 1C46     		mov	r4, r3
 817:Drivers/W25qxx/w25qxx.c **** 	if((NumByteToWrite_up_to_BlockSize>w25qxx.BlockSize)||(NumByteToWrite_up_to_BlockSize == 0))
 2787              		.loc 1 817 2 is_stmt 1 view .LVU672
 2788              		.loc 1 817 43 is_stmt 0 view .LVU673
 2789 000a 134B     		ldr	r3, .L195
 2790              	.LVL284:
 2791              		.loc 1 817 43 view .LVU674
 2792 000c 9B69     		ldr	r3, [r3, #24]
 2793              		.loc 1 817 4 view .LVU675
 2794 000e A342     		cmp	r3, r4
 2795 0010 02D3     		bcc	.L192
 2796              		.loc 1 817 54 discriminator 1 view .LVU676
 2797 0012 14B9     		cbnz	r4, .L188
 818:Drivers/W25qxx/w25qxx.c **** 		NumByteToWrite_up_to_BlockSize=w25qxx.BlockSize;
 2798              		.loc 1 818 33 view .LVU677
 2799 0014 1C46     		mov	r4, r3
 2800              	.LVL285:
 2801              		.loc 1 818 33 view .LVU678
 2802 0016 00E0     		b	.L188
 2803              	.LVL286:
 2804              	.L192:
 2805              		.loc 1 818 33 view .LVU679
 2806 0018 1C46     		mov	r4, r3
 2807              	.LVL287:
 2808              	.L188:
 819:Drivers/W25qxx/w25qxx.c **** 
 820:Drivers/W25qxx/w25qxx.c **** 	uint32_t	StartPage;
 2809              		.loc 1 820 2 is_stmt 1 view .LVU680
 821:Drivers/W25qxx/w25qxx.c **** 	int32_t		BytesToWrite;
ARM GAS  C:\Users\Andre\AppData\Local\Temp\cc6DUQzQ.s 			page 68


 2810              		.loc 1 821 2 view .LVU681
 822:Drivers/W25qxx/w25qxx.c **** 	uint32_t	LocalOffset;
 2811              		.loc 1 822 2 view .LVU682
 823:Drivers/W25qxx/w25qxx.c **** 
 824:Drivers/W25qxx/w25qxx.c **** 	if((OffsetInByte+NumByteToWrite_up_to_BlockSize) > w25qxx.BlockSize)
 2812              		.loc 1 824 2 view .LVU683
 2813              		.loc 1 824 18 is_stmt 0 view .LVU684
 2814 001a 6219     		adds	r2, r4, r5
 2815              	.LVL288:
 2816              		.loc 1 824 4 view .LVU685
 2817 001c 9342     		cmp	r3, r2
 2818 001e 00D2     		bcs	.L190
 825:Drivers/W25qxx/w25qxx.c **** 		BytesToWrite = w25qxx.BlockSize - OffsetInByte;
 2819              		.loc 1 825 3 is_stmt 1 view .LVU686
 2820              		.loc 1 825 35 is_stmt 0 view .LVU687
 2821 0020 5C1B     		subs	r4, r3, r5
 2822              	.LVL289:
 2823              	.L190:
 826:Drivers/W25qxx/w25qxx.c **** 	else
 827:Drivers/W25qxx/w25qxx.c **** 		BytesToWrite = NumByteToWrite_up_to_BlockSize;	
 828:Drivers/W25qxx/w25qxx.c **** 
 829:Drivers/W25qxx/w25qxx.c **** 	StartPage = W25qxx_BlockToPage(Block_Address)+(OffsetInByte/w25qxx.PageSize);
 2824              		.loc 1 829 2 is_stmt 1 view .LVU688
 2825              		.loc 1 829 14 is_stmt 0 view .LVU689
 2826 0022 FFF7FEFF 		bl	W25qxx_BlockToPage
 2827              	.LVL290:
 2828              		.loc 1 829 68 view .LVU690
 2829 0026 0C4B     		ldr	r3, .L195
 2830 0028 5A89     		ldrh	r2, [r3, #10]
 2831              		.loc 1 829 61 view .LVU691
 2832 002a B5FBF2F3 		udiv	r3, r5, r2
 2833              		.loc 1 829 12 view .LVU692
 2834 002e C618     		adds	r6, r0, r3
 2835              	.LVL291:
 830:Drivers/W25qxx/w25qxx.c **** 
 831:Drivers/W25qxx/w25qxx.c **** 	LocalOffset = OffsetInByte%w25qxx.PageSize;	
 2836              		.loc 1 831 2 is_stmt 1 view .LVU693
 2837              		.loc 1 831 14 is_stmt 0 view .LVU694
 2838 0030 02FB1355 		mls	r5, r2, r3, r5
 2839              	.LVL292:
 2840              	.L191:
 832:Drivers/W25qxx/w25qxx.c **** 
 833:Drivers/W25qxx/w25qxx.c **** 	do
 2841              		.loc 1 833 2 is_stmt 1 discriminator 1 view .LVU695
 834:Drivers/W25qxx/w25qxx.c **** 	{		
 835:Drivers/W25qxx/w25qxx.c **** 		W25qxx_WritePage(pBuffer,StartPage,LocalOffset,BytesToWrite);
 2842              		.loc 1 835 3 discriminator 1 view .LVU696
 2843 0034 2346     		mov	r3, r4
 2844 0036 2A46     		mov	r2, r5
 2845 0038 3146     		mov	r1, r6
 2846 003a 3846     		mov	r0, r7
 2847 003c FFF7FEFF 		bl	W25qxx_WritePage
 2848              	.LVL293:
 836:Drivers/W25qxx/w25qxx.c **** 		StartPage++;
 2849              		.loc 1 836 3 discriminator 1 view .LVU697
 2850              		.loc 1 836 12 is_stmt 0 discriminator 1 view .LVU698
 2851 0040 0136     		adds	r6, r6, #1
ARM GAS  C:\Users\Andre\AppData\Local\Temp\cc6DUQzQ.s 			page 69


 2852              	.LVL294:
 837:Drivers/W25qxx/w25qxx.c **** 		BytesToWrite -= w25qxx.PageSize - LocalOffset;
 2853              		.loc 1 837 3 is_stmt 1 discriminator 1 view .LVU699
 2854              		.loc 1 837 25 is_stmt 0 discriminator 1 view .LVU700
 2855 0042 054B     		ldr	r3, .L195
 2856 0044 5B89     		ldrh	r3, [r3, #10]
 2857              		.loc 1 837 16 discriminator 1 view .LVU701
 2858 0046 EA1A     		subs	r2, r5, r3
 2859 0048 1444     		add	r4, r4, r2
 2860              	.LVL295:
 838:Drivers/W25qxx/w25qxx.c **** 		//pBuffer += w25qxx.PageSize;
 839:Drivers/W25qxx/w25qxx.c **** 		pBuffer += w25qxx.PageSize - LocalOffset;
 2861              		.loc 1 839 3 is_stmt 1 discriminator 1 view .LVU702
 2862              		.loc 1 839 30 is_stmt 0 discriminator 1 view .LVU703
 2863 004a 5B1B     		subs	r3, r3, r5
 2864              		.loc 1 839 11 discriminator 1 view .LVU704
 2865 004c 1F44     		add	r7, r7, r3
 2866              	.LVL296:
 840:Drivers/W25qxx/w25qxx.c **** 		LocalOffset = 0;
 2867              		.loc 1 840 3 is_stmt 1 discriminator 1 view .LVU705
 841:Drivers/W25qxx/w25qxx.c **** 	}
 842:Drivers/W25qxx/w25qxx.c **** 	while(BytesToWrite > 0);
 2868              		.loc 1 842 7 discriminator 1 view .LVU706
 840:Drivers/W25qxx/w25qxx.c **** 		LocalOffset = 0;
 2869              		.loc 1 840 15 is_stmt 0 discriminator 1 view .LVU707
 2870 004e 0025     		movs	r5, #0
 2871              		.loc 1 842 2 discriminator 1 view .LVU708
 2872 0050 AC42     		cmp	r4, r5
 2873 0052 EFDC     		bgt	.L191
 843:Drivers/W25qxx/w25qxx.c **** }
 2874              		.loc 1 843 1 view .LVU709
 2875 0054 F8BD     		pop	{r3, r4, r5, r6, r7, pc}
 2876              	.LVL297:
 2877              	.L196:
 2878              		.loc 1 843 1 view .LVU710
 2879 0056 00BF     		.align	2
 2880              	.L195:
 2881 0058 00000000 		.word	w25qxx
 2882              		.cfi_endproc
 2883              	.LFE258:
 2885              		.section	.text.W25qxx_ReadByte,"ax",%progbits
 2886              		.align	1
 2887              		.global	W25qxx_ReadByte
 2888              		.syntax unified
 2889              		.thumb
 2890              		.thumb_func
 2891              		.fpu fpv4-sp-d16
 2893              	W25qxx_ReadByte:
 2894              	.LVL298:
 2895              	.LFB259:
 844:Drivers/W25qxx/w25qxx.c **** 
 845:Drivers/W25qxx/w25qxx.c **** //#################################################################################################
 846:Drivers/W25qxx/w25qxx.c **** void W25qxx_ReadByte(uint8_t *pBuffer, uint32_t Bytes_Address)
 847:Drivers/W25qxx/w25qxx.c **** {
 2896              		.loc 1 847 1 is_stmt 1 view -0
 2897              		.cfi_startproc
 2898              		@ args = 0, pretend = 0, frame = 0
ARM GAS  C:\Users\Andre\AppData\Local\Temp\cc6DUQzQ.s 			page 70


 2899              		@ frame_needed = 0, uses_anonymous_args = 0
 2900              		.loc 1 847 1 is_stmt 0 view .LVU712
 2901 0000 70B5     		push	{r4, r5, r6, lr}
 2902              	.LCFI26:
 2903              		.cfi_def_cfa_offset 16
 2904              		.cfi_offset 4, -16
 2905              		.cfi_offset 5, -12
 2906              		.cfi_offset 6, -8
 2907              		.cfi_offset 14, -4
 2908 0002 0546     		mov	r5, r0
 2909 0004 0C46     		mov	r4, r1
 848:Drivers/W25qxx/w25qxx.c **** 	while(w25qxx.Lock==1)
 2910              		.loc 1 848 2 is_stmt 1 view .LVU713
 2911              	.LVL299:
 2912              	.L198:
 2913              		.loc 1 848 7 view .LVU714
 2914              		.loc 1 848 14 is_stmt 0 view .LVU715
 2915 0006 1D4B     		ldr	r3, .L204
 2916 0008 93F82730 		ldrb	r3, [r3, #39]	@ zero_extendqisi2
 2917              		.loc 1 848 7 view .LVU716
 2918 000c 012B     		cmp	r3, #1
 2919 000e 03D1     		bne	.L202
 849:Drivers/W25qxx/w25qxx.c **** 		W25qxx_Delay(1);
 2920              		.loc 1 849 3 is_stmt 1 view .LVU717
 2921 0010 0120     		movs	r0, #1
 2922 0012 FFF7FEFF 		bl	HAL_Delay
 2923              	.LVL300:
 2924 0016 F6E7     		b	.L198
 2925              	.L202:
 850:Drivers/W25qxx/w25qxx.c **** 
 851:Drivers/W25qxx/w25qxx.c **** 	w25qxx.Lock=1;
 2926              		.loc 1 851 2 view .LVU718
 2927              		.loc 1 851 13 is_stmt 0 view .LVU719
 2928 0018 184E     		ldr	r6, .L204
 2929 001a 0123     		movs	r3, #1
 2930 001c 86F82730 		strb	r3, [r6, #39]
 852:Drivers/W25qxx/w25qxx.c **** 
 853:Drivers/W25qxx/w25qxx.c **** 	W25QFLASH_CS_SELECT;
 2931              		.loc 1 853 2 is_stmt 1 view .LVU720
 2932 0020 0022     		movs	r2, #0
 2933 0022 4FF40041 		mov	r1, #32768
 2934 0026 1648     		ldr	r0, .L204+4
 2935 0028 FFF7FEFF 		bl	HAL_GPIO_WritePin
 2936              	.LVL301:
 854:Drivers/W25qxx/w25qxx.c **** 	W25qxx_Spi(W25_FAST_READ);
 2937              		.loc 1 854 2 view .LVU721
 2938 002c 0B20     		movs	r0, #11
 2939 002e FFF7FEFF 		bl	W25qxx_Spi
 2940              	.LVL302:
 855:Drivers/W25qxx/w25qxx.c **** 
 856:Drivers/W25qxx/w25qxx.c **** 	if(w25qxx.ID >= W25Q256)
 2941              		.loc 1 856 2 view .LVU722
 2942              		.loc 1 856 11 is_stmt 0 view .LVU723
 2943 0032 3378     		ldrb	r3, [r6]	@ zero_extendqisi2
 2944              		.loc 1 856 4 view .LVU724
 2945 0034 082B     		cmp	r3, #8
 2946 0036 1CD8     		bhi	.L203
ARM GAS  C:\Users\Andre\AppData\Local\Temp\cc6DUQzQ.s 			page 71


 2947              	.L200:
 857:Drivers/W25qxx/w25qxx.c **** 		W25qxx_Spi((Bytes_Address & 0xFF000000) >> 24);
 858:Drivers/W25qxx/w25qxx.c **** 
 859:Drivers/W25qxx/w25qxx.c **** 	W25qxx_Spi((Bytes_Address & 0xFF0000) >> 16);
 2948              		.loc 1 859 2 is_stmt 1 view .LVU725
 2949 0038 C4F30740 		ubfx	r0, r4, #16, #8
 2950 003c FFF7FEFF 		bl	W25qxx_Spi
 2951              	.LVL303:
 860:Drivers/W25qxx/w25qxx.c **** 	W25qxx_Spi((Bytes_Address& 0xFF00) >> 8);
 2952              		.loc 1 860 2 view .LVU726
 2953 0040 C4F30720 		ubfx	r0, r4, #8, #8
 2954 0044 FFF7FEFF 		bl	W25qxx_Spi
 2955              	.LVL304:
 861:Drivers/W25qxx/w25qxx.c **** 	W25qxx_Spi(Bytes_Address & 0xFF);
 2956              		.loc 1 861 2 view .LVU727
 2957 0048 E0B2     		uxtb	r0, r4
 2958 004a FFF7FEFF 		bl	W25qxx_Spi
 2959              	.LVL305:
 862:Drivers/W25qxx/w25qxx.c **** 	W25qxx_Spi(0);
 2960              		.loc 1 862 2 view .LVU728
 2961 004e 0020     		movs	r0, #0
 2962 0050 FFF7FEFF 		bl	W25qxx_Spi
 2963              	.LVL306:
 863:Drivers/W25qxx/w25qxx.c **** 
 864:Drivers/W25qxx/w25qxx.c **** 	*pBuffer = W25qxx_Spi(W25QXX_DUMMY_BYTE);
 2964              		.loc 1 864 2 view .LVU729
 2965              		.loc 1 864 13 is_stmt 0 view .LVU730
 2966 0054 A520     		movs	r0, #165
 2967 0056 FFF7FEFF 		bl	W25qxx_Spi
 2968              	.LVL307:
 2969              		.loc 1 864 11 view .LVU731
 2970 005a 2870     		strb	r0, [r5]
 865:Drivers/W25qxx/w25qxx.c **** 
 866:Drivers/W25qxx/w25qxx.c **** 	W25QFLASH_CS_UNSELECT;
 2971              		.loc 1 866 2 is_stmt 1 view .LVU732
 2972 005c 0122     		movs	r2, #1
 2973 005e 4FF40041 		mov	r1, #32768
 2974 0062 0748     		ldr	r0, .L204+4
 2975 0064 FFF7FEFF 		bl	HAL_GPIO_WritePin
 2976              	.LVL308:
 867:Drivers/W25qxx/w25qxx.c **** 
 868:Drivers/W25qxx/w25qxx.c **** 	w25qxx.Lock = 0;
 2977              		.loc 1 868 2 view .LVU733
 2978              		.loc 1 868 14 is_stmt 0 view .LVU734
 2979 0068 044B     		ldr	r3, .L204
 2980 006a 0022     		movs	r2, #0
 2981 006c 83F82720 		strb	r2, [r3, #39]
 869:Drivers/W25qxx/w25qxx.c **** }
 2982              		.loc 1 869 1 view .LVU735
 2983 0070 70BD     		pop	{r4, r5, r6, pc}
 2984              	.LVL309:
 2985              	.L203:
 857:Drivers/W25qxx/w25qxx.c **** 
 2986              		.loc 1 857 3 is_stmt 1 view .LVU736
 2987 0072 200E     		lsrs	r0, r4, #24
 2988 0074 FFF7FEFF 		bl	W25qxx_Spi
 2989              	.LVL310:
ARM GAS  C:\Users\Andre\AppData\Local\Temp\cc6DUQzQ.s 			page 72


 2990 0078 DEE7     		b	.L200
 2991              	.L205:
 2992 007a 00BF     		.align	2
 2993              	.L204:
 2994 007c 00000000 		.word	w25qxx
 2995 0080 00000240 		.word	1073872896
 2996              		.cfi_endproc
 2997              	.LFE259:
 2999              		.section	.text.W25qxx_ReadBytes,"ax",%progbits
 3000              		.align	1
 3001              		.global	W25qxx_ReadBytes
 3002              		.syntax unified
 3003              		.thumb
 3004              		.thumb_func
 3005              		.fpu fpv4-sp-d16
 3007              	W25qxx_ReadBytes:
 3008              	.LVL311:
 3009              	.LFB260:
 870:Drivers/W25qxx/w25qxx.c **** 
 871:Drivers/W25qxx/w25qxx.c **** //#################################################################################################
 872:Drivers/W25qxx/w25qxx.c **** void W25qxx_ReadBytes(uint8_t* pBuffer, uint32_t ReadAddr, uint32_t NumByteToRead)
 873:Drivers/W25qxx/w25qxx.c **** {
 3010              		.loc 1 873 1 view -0
 3011              		.cfi_startproc
 3012              		@ args = 0, pretend = 0, frame = 0
 3013              		@ frame_needed = 0, uses_anonymous_args = 0
 3014              		.loc 1 873 1 is_stmt 0 view .LVU738
 3015 0000 F8B5     		push	{r3, r4, r5, r6, r7, lr}
 3016              	.LCFI27:
 3017              		.cfi_def_cfa_offset 24
 3018              		.cfi_offset 3, -24
 3019              		.cfi_offset 4, -20
 3020              		.cfi_offset 5, -16
 3021              		.cfi_offset 6, -12
 3022              		.cfi_offset 7, -8
 3023              		.cfi_offset 14, -4
 3024 0002 0546     		mov	r5, r0
 3025 0004 0C46     		mov	r4, r1
 3026 0006 1646     		mov	r6, r2
 874:Drivers/W25qxx/w25qxx.c **** 	while(w25qxx.Lock == 1)
 3027              		.loc 1 874 2 is_stmt 1 view .LVU739
 3028              	.LVL312:
 3029              	.L207:
 3030              		.loc 1 874 7 view .LVU740
 3031              		.loc 1 874 14 is_stmt 0 view .LVU741
 3032 0008 1F4B     		ldr	r3, .L213
 3033 000a 93F82730 		ldrb	r3, [r3, #39]	@ zero_extendqisi2
 3034              		.loc 1 874 7 view .LVU742
 3035 000e 012B     		cmp	r3, #1
 3036 0010 03D1     		bne	.L211
 875:Drivers/W25qxx/w25qxx.c **** 	W25qxx_Delay(1);
 3037              		.loc 1 875 2 is_stmt 1 view .LVU743
 3038 0012 0120     		movs	r0, #1
 3039 0014 FFF7FEFF 		bl	HAL_Delay
 3040              	.LVL313:
 3041 0018 F6E7     		b	.L207
 3042              	.L211:
ARM GAS  C:\Users\Andre\AppData\Local\Temp\cc6DUQzQ.s 			page 73


 876:Drivers/W25qxx/w25qxx.c **** 
 877:Drivers/W25qxx/w25qxx.c **** 	w25qxx.Lock = 1;
 3043              		.loc 1 877 2 view .LVU744
 3044              		.loc 1 877 14 is_stmt 0 view .LVU745
 3045 001a 1B4F     		ldr	r7, .L213
 3046 001c 0123     		movs	r3, #1
 3047 001e 87F82730 		strb	r3, [r7, #39]
 878:Drivers/W25qxx/w25qxx.c **** 
 879:Drivers/W25qxx/w25qxx.c **** 	W25QFLASH_CS_SELECT;
 3048              		.loc 1 879 2 is_stmt 1 view .LVU746
 3049 0022 0022     		movs	r2, #0
 3050 0024 4FF40041 		mov	r1, #32768
 3051 0028 1848     		ldr	r0, .L213+4
 3052 002a FFF7FEFF 		bl	HAL_GPIO_WritePin
 3053              	.LVL314:
 880:Drivers/W25qxx/w25qxx.c **** 
 881:Drivers/W25qxx/w25qxx.c **** 	W25qxx_Spi(W25_FAST_READ);
 3054              		.loc 1 881 2 view .LVU747
 3055 002e 0B20     		movs	r0, #11
 3056 0030 FFF7FEFF 		bl	W25qxx_Spi
 3057              	.LVL315:
 882:Drivers/W25qxx/w25qxx.c **** 
 883:Drivers/W25qxx/w25qxx.c **** 	if(w25qxx.ID >= W25Q256)
 3058              		.loc 1 883 2 view .LVU748
 3059              		.loc 1 883 11 is_stmt 0 view .LVU749
 3060 0034 3B78     		ldrb	r3, [r7]	@ zero_extendqisi2
 3061              		.loc 1 883 4 view .LVU750
 3062 0036 082B     		cmp	r3, #8
 3063 0038 22D8     		bhi	.L212
 3064              	.L209:
 884:Drivers/W25qxx/w25qxx.c **** 		W25qxx_Spi((ReadAddr & 0xFF000000) >> 24);
 885:Drivers/W25qxx/w25qxx.c **** 
 886:Drivers/W25qxx/w25qxx.c **** 	W25qxx_Spi((ReadAddr & 0xFF0000) >> 16);
 3065              		.loc 1 886 2 is_stmt 1 view .LVU751
 3066 003a C4F30740 		ubfx	r0, r4, #16, #8
 3067 003e FFF7FEFF 		bl	W25qxx_Spi
 3068              	.LVL316:
 887:Drivers/W25qxx/w25qxx.c **** 	W25qxx_Spi((ReadAddr& 0xFF00) >> 8);
 3069              		.loc 1 887 2 view .LVU752
 3070 0042 C4F30720 		ubfx	r0, r4, #8, #8
 3071 0046 FFF7FEFF 		bl	W25qxx_Spi
 3072              	.LVL317:
 888:Drivers/W25qxx/w25qxx.c **** 	W25qxx_Spi(ReadAddr & 0xFF);
 3073              		.loc 1 888 2 view .LVU753
 3074 004a E0B2     		uxtb	r0, r4
 3075 004c FFF7FEFF 		bl	W25qxx_Spi
 3076              	.LVL318:
 889:Drivers/W25qxx/w25qxx.c **** 	W25qxx_Spi(0);
 3077              		.loc 1 889 2 view .LVU754
 3078 0050 0020     		movs	r0, #0
 3079 0052 FFF7FEFF 		bl	W25qxx_Spi
 3080              	.LVL319:
 890:Drivers/W25qxx/w25qxx.c **** 
 891:Drivers/W25qxx/w25qxx.c **** 	HAL_SPI_Receive(W25QXX_SPI_PTR, pBuffer, NumByteToRead, 2000);
 3081              		.loc 1 891 2 view .LVU755
 3082 0056 4FF4FA63 		mov	r3, #2000
 3083 005a B2B2     		uxth	r2, r6
ARM GAS  C:\Users\Andre\AppData\Local\Temp\cc6DUQzQ.s 			page 74


 3084 005c 2946     		mov	r1, r5
 3085 005e 0C48     		ldr	r0, .L213+8
 3086 0060 FFF7FEFF 		bl	HAL_SPI_Receive
 3087              	.LVL320:
 892:Drivers/W25qxx/w25qxx.c **** 
 893:Drivers/W25qxx/w25qxx.c **** 	/*uint16_t i = 0;
 894:Drivers/W25qxx/w25qxx.c **** 
 895:Drivers/W25qxx/w25qxx.c **** 	while(NumByteToRead > 0U)
 896:Drivers/W25qxx/w25qxx.c **** 	{
 897:Drivers/W25qxx/w25qxx.c **** 		//while(!(W25QXX_SPI->SR & SPI_SR_TXE));
 898:Drivers/W25qxx/w25qxx.c **** 		W25QXX_SPI->DR = 0;
 899:Drivers/W25qxx/w25qxx.c **** 
 900:Drivers/W25qxx/w25qxx.c **** 		while(!(W25QXX_SPI->SR & SPI_SR_RXNE));
 901:Drivers/W25qxx/w25qxx.c **** 		pBuffer[i++] = W25QXX_SPI->DR;
 902:Drivers/W25qxx/w25qxx.c **** 		NumByteToRead--;
 903:Drivers/W25qxx/w25qxx.c **** 	}*/
 904:Drivers/W25qxx/w25qxx.c **** 
 905:Drivers/W25qxx/w25qxx.c **** 	W25QFLASH_CS_UNSELECT;
 3088              		.loc 1 905 2 view .LVU756
 3089 0064 0122     		movs	r2, #1
 3090 0066 4FF40041 		mov	r1, #32768
 3091 006a 0848     		ldr	r0, .L213+4
 3092 006c FFF7FEFF 		bl	HAL_GPIO_WritePin
 3093              	.LVL321:
 906:Drivers/W25qxx/w25qxx.c **** 
 907:Drivers/W25qxx/w25qxx.c **** 	W25qxx_Delay(1);
 3094              		.loc 1 907 2 view .LVU757
 3095 0070 0120     		movs	r0, #1
 3096 0072 FFF7FEFF 		bl	HAL_Delay
 3097              	.LVL322:
 908:Drivers/W25qxx/w25qxx.c **** 	w25qxx.Lock = 0;
 3098              		.loc 1 908 2 view .LVU758
 3099              		.loc 1 908 14 is_stmt 0 view .LVU759
 3100 0076 044B     		ldr	r3, .L213
 3101 0078 0022     		movs	r2, #0
 3102 007a 83F82720 		strb	r2, [r3, #39]
 909:Drivers/W25qxx/w25qxx.c **** }
 3103              		.loc 1 909 1 view .LVU760
 3104 007e F8BD     		pop	{r3, r4, r5, r6, r7, pc}
 3105              	.LVL323:
 3106              	.L212:
 884:Drivers/W25qxx/w25qxx.c **** 
 3107              		.loc 1 884 3 is_stmt 1 view .LVU761
 3108 0080 200E     		lsrs	r0, r4, #24
 3109 0082 FFF7FEFF 		bl	W25qxx_Spi
 3110              	.LVL324:
 3111 0086 D8E7     		b	.L209
 3112              	.L214:
 3113              		.align	2
 3114              	.L213:
 3115 0088 00000000 		.word	w25qxx
 3116 008c 00000240 		.word	1073872896
 3117 0090 00000000 		.word	hspi1
 3118              		.cfi_endproc
 3119              	.LFE260:
 3121              		.section	.text.W25qxx_ReadPage,"ax",%progbits
 3122              		.align	1
ARM GAS  C:\Users\Andre\AppData\Local\Temp\cc6DUQzQ.s 			page 75


 3123              		.global	W25qxx_ReadPage
 3124              		.syntax unified
 3125              		.thumb
 3126              		.thumb_func
 3127              		.fpu fpv4-sp-d16
 3129              	W25qxx_ReadPage:
 3130              	.LVL325:
 3131              	.LFB261:
 910:Drivers/W25qxx/w25qxx.c **** 
 911:Drivers/W25qxx/w25qxx.c **** //#################################################################################################
 912:Drivers/W25qxx/w25qxx.c **** void W25qxx_ReadPage(uint8_t *pBuffer, uint32_t Page_Address, uint32_t OffsetInByte, uint32_t NumBy
 913:Drivers/W25qxx/w25qxx.c **** {
 3132              		.loc 1 913 1 view -0
 3133              		.cfi_startproc
 3134              		@ args = 0, pretend = 0, frame = 0
 3135              		@ frame_needed = 0, uses_anonymous_args = 0
 3136              		.loc 1 913 1 is_stmt 0 view .LVU763
 3137 0000 2DE9F041 		push	{r4, r5, r6, r7, r8, lr}
 3138              	.LCFI28:
 3139              		.cfi_def_cfa_offset 24
 3140              		.cfi_offset 4, -24
 3141              		.cfi_offset 5, -20
 3142              		.cfi_offset 6, -16
 3143              		.cfi_offset 7, -12
 3144              		.cfi_offset 8, -8
 3145              		.cfi_offset 14, -4
 3146 0004 0746     		mov	r7, r0
 3147 0006 8846     		mov	r8, r1
 3148 0008 1646     		mov	r6, r2
 3149 000a 1D46     		mov	r5, r3
 914:Drivers/W25qxx/w25qxx.c **** 	while(w25qxx.Lock==1)
 3150              		.loc 1 914 2 is_stmt 1 view .LVU764
 3151              	.LVL326:
 3152              	.L216:
 3153              		.loc 1 914 7 view .LVU765
 3154              		.loc 1 914 14 is_stmt 0 view .LVU766
 3155 000c 264C     		ldr	r4, .L226
 3156 000e 94F82740 		ldrb	r4, [r4, #39]	@ zero_extendqisi2
 3157              		.loc 1 914 7 view .LVU767
 3158 0012 012C     		cmp	r4, #1
 3159 0014 03D1     		bne	.L224
 915:Drivers/W25qxx/w25qxx.c **** 		W25qxx_Delay(1);
 3160              		.loc 1 915 3 is_stmt 1 view .LVU768
 3161 0016 0120     		movs	r0, #1
 3162 0018 FFF7FEFF 		bl	HAL_Delay
 3163              	.LVL327:
 3164 001c F6E7     		b	.L216
 3165              	.L224:
 916:Drivers/W25qxx/w25qxx.c **** 
 917:Drivers/W25qxx/w25qxx.c **** 	w25qxx.Lock = 1;
 3166              		.loc 1 917 2 view .LVU769
 3167              		.loc 1 917 14 is_stmt 0 view .LVU770
 3168 001e 224B     		ldr	r3, .L226
 3169 0020 0122     		movs	r2, #1
 3170 0022 83F82720 		strb	r2, [r3, #39]
 918:Drivers/W25qxx/w25qxx.c **** 
 919:Drivers/W25qxx/w25qxx.c **** 	if((NumByteToRead_up_to_PageSize>w25qxx.PageSize) || (NumByteToRead_up_to_PageSize==0))
ARM GAS  C:\Users\Andre\AppData\Local\Temp\cc6DUQzQ.s 			page 76


 3171              		.loc 1 919 2 is_stmt 1 view .LVU771
 3172              		.loc 1 919 41 is_stmt 0 view .LVU772
 3173 0026 5C89     		ldrh	r4, [r3, #10]
 3174              		.loc 1 919 4 view .LVU773
 3175 0028 AC42     		cmp	r4, r5
 3176 002a 02D3     		bcc	.L221
 3177              		.loc 1 919 52 discriminator 1 view .LVU774
 3178 002c 15B9     		cbnz	r5, .L218
 920:Drivers/W25qxx/w25qxx.c **** 		NumByteToRead_up_to_PageSize=w25qxx.PageSize;
 3179              		.loc 1 920 31 view .LVU775
 3180 002e 2546     		mov	r5, r4
 3181              	.LVL328:
 3182              		.loc 1 920 31 view .LVU776
 3183 0030 00E0     		b	.L218
 3184              	.LVL329:
 3185              	.L221:
 3186              		.loc 1 920 31 view .LVU777
 3187 0032 2546     		mov	r5, r4
 3188              	.LVL330:
 3189              	.L218:
 921:Drivers/W25qxx/w25qxx.c **** 
 922:Drivers/W25qxx/w25qxx.c **** 	if((OffsetInByte+NumByteToRead_up_to_PageSize) > w25qxx.PageSize)
 3190              		.loc 1 922 2 is_stmt 1 view .LVU778
 3191              		.loc 1 922 18 is_stmt 0 view .LVU779
 3192 0034 AB19     		adds	r3, r5, r6
 3193              		.loc 1 922 4 view .LVU780
 3194 0036 9C42     		cmp	r4, r3
 3195 0038 00D2     		bcs	.L219
 923:Drivers/W25qxx/w25qxx.c **** 		NumByteToRead_up_to_PageSize = w25qxx.PageSize - OffsetInByte;
 3196              		.loc 1 923 3 is_stmt 1 view .LVU781
 3197              		.loc 1 923 32 is_stmt 0 view .LVU782
 3198 003a A51B     		subs	r5, r4, r6
 3199              	.LVL331:
 3200              	.L219:
 924:Drivers/W25qxx/w25qxx.c **** 
 925:Drivers/W25qxx/w25qxx.c **** 	Page_Address = Page_Address * w25qxx.PageSize + OffsetInByte;
 3201              		.loc 1 925 2 is_stmt 1 view .LVU783
 3202              		.loc 1 925 15 is_stmt 0 view .LVU784
 3203 003c 08FB0464 		mla	r4, r8, r4, r6
 3204              	.LVL332:
 926:Drivers/W25qxx/w25qxx.c **** 	W25QFLASH_CS_SELECT;
 3205              		.loc 1 926 2 is_stmt 1 view .LVU785
 3206 0040 0022     		movs	r2, #0
 3207 0042 4FF40041 		mov	r1, #32768
 3208 0046 1948     		ldr	r0, .L226+4
 3209 0048 FFF7FEFF 		bl	HAL_GPIO_WritePin
 3210              	.LVL333:
 927:Drivers/W25qxx/w25qxx.c **** 
 928:Drivers/W25qxx/w25qxx.c **** 	W25qxx_Spi(W25_FAST_READ);
 3211              		.loc 1 928 2 view .LVU786
 3212 004c 0B20     		movs	r0, #11
 3213 004e FFF7FEFF 		bl	W25qxx_Spi
 3214              	.LVL334:
 929:Drivers/W25qxx/w25qxx.c **** 
 930:Drivers/W25qxx/w25qxx.c **** 	if(w25qxx.ID >= W25Q256)
 3215              		.loc 1 930 2 view .LVU787
 3216              		.loc 1 930 11 is_stmt 0 view .LVU788
ARM GAS  C:\Users\Andre\AppData\Local\Temp\cc6DUQzQ.s 			page 77


 3217 0052 154B     		ldr	r3, .L226
 3218 0054 1B78     		ldrb	r3, [r3]	@ zero_extendqisi2
 3219              		.loc 1 930 4 view .LVU789
 3220 0056 082B     		cmp	r3, #8
 3221 0058 22D8     		bhi	.L225
 3222              	.L220:
 931:Drivers/W25qxx/w25qxx.c **** 		W25qxx_Spi((Page_Address & 0xFF000000) >> 24);
 932:Drivers/W25qxx/w25qxx.c **** 
 933:Drivers/W25qxx/w25qxx.c **** 	W25qxx_Spi((Page_Address & 0xFF0000) >> 16);
 3223              		.loc 1 933 2 is_stmt 1 view .LVU790
 3224 005a C4F30740 		ubfx	r0, r4, #16, #8
 3225 005e FFF7FEFF 		bl	W25qxx_Spi
 3226              	.LVL335:
 934:Drivers/W25qxx/w25qxx.c **** 	W25qxx_Spi((Page_Address& 0xFF00) >> 8);
 3227              		.loc 1 934 2 view .LVU791
 3228 0062 C4F30720 		ubfx	r0, r4, #8, #8
 3229 0066 FFF7FEFF 		bl	W25qxx_Spi
 3230              	.LVL336:
 935:Drivers/W25qxx/w25qxx.c **** 	W25qxx_Spi(Page_Address & 0xFF);
 3231              		.loc 1 935 2 view .LVU792
 3232 006a E0B2     		uxtb	r0, r4
 3233 006c FFF7FEFF 		bl	W25qxx_Spi
 3234              	.LVL337:
 936:Drivers/W25qxx/w25qxx.c **** 
 937:Drivers/W25qxx/w25qxx.c **** 	W25qxx_Spi(0);
 3235              		.loc 1 937 2 view .LVU793
 3236 0070 0020     		movs	r0, #0
 3237 0072 FFF7FEFF 		bl	W25qxx_Spi
 3238              	.LVL338:
 938:Drivers/W25qxx/w25qxx.c **** 
 939:Drivers/W25qxx/w25qxx.c **** 	HAL_SPI_Receive(W25QXX_SPI_PTR, pBuffer, NumByteToRead_up_to_PageSize, 100);
 3239              		.loc 1 939 2 view .LVU794
 3240 0076 6423     		movs	r3, #100
 3241 0078 AAB2     		uxth	r2, r5
 3242 007a 3946     		mov	r1, r7
 3243 007c 0C48     		ldr	r0, .L226+8
 3244 007e FFF7FEFF 		bl	HAL_SPI_Receive
 3245              	.LVL339:
 940:Drivers/W25qxx/w25qxx.c **** 
 941:Drivers/W25qxx/w25qxx.c **** 	/*uint16_t i = 0;
 942:Drivers/W25qxx/w25qxx.c **** 
 943:Drivers/W25qxx/w25qxx.c **** 	while(NumByteToRead_up_to_PageSize > 0U)
 944:Drivers/W25qxx/w25qxx.c **** 	{
 945:Drivers/W25qxx/w25qxx.c **** 		while(!(W25QXX_SPI->SR & SPI_SR_TXE));
 946:Drivers/W25qxx/w25qxx.c **** 		W25QXX_SPI->DR = 0;
 947:Drivers/W25qxx/w25qxx.c **** 
 948:Drivers/W25qxx/w25qxx.c **** 		while(!(W25QXX_SPI->SR & SPI_SR_RXNE));
 949:Drivers/W25qxx/w25qxx.c **** 		pBuffer[i++] = W25QXX_SPI->DR;
 950:Drivers/W25qxx/w25qxx.c **** 		NumByteToRead_up_to_PageSize--;
 951:Drivers/W25qxx/w25qxx.c **** 	}*/
 952:Drivers/W25qxx/w25qxx.c **** 
 953:Drivers/W25qxx/w25qxx.c **** 	W25QFLASH_CS_UNSELECT;
 3246              		.loc 1 953 2 view .LVU795
 3247 0082 0122     		movs	r2, #1
 3248 0084 4FF40041 		mov	r1, #32768
 3249 0088 0848     		ldr	r0, .L226+4
 3250 008a FFF7FEFF 		bl	HAL_GPIO_WritePin
ARM GAS  C:\Users\Andre\AppData\Local\Temp\cc6DUQzQ.s 			page 78


 3251              	.LVL340:
 954:Drivers/W25qxx/w25qxx.c **** 
 955:Drivers/W25qxx/w25qxx.c **** 	W25qxx_Delay(1);
 3252              		.loc 1 955 2 view .LVU796
 3253 008e 0120     		movs	r0, #1
 3254 0090 FFF7FEFF 		bl	HAL_Delay
 3255              	.LVL341:
 956:Drivers/W25qxx/w25qxx.c **** 	w25qxx.Lock=0;
 3256              		.loc 1 956 2 view .LVU797
 3257              		.loc 1 956 13 is_stmt 0 view .LVU798
 3258 0094 044B     		ldr	r3, .L226
 3259 0096 0022     		movs	r2, #0
 3260 0098 83F82720 		strb	r2, [r3, #39]
 957:Drivers/W25qxx/w25qxx.c **** }
 3261              		.loc 1 957 1 view .LVU799
 3262 009c BDE8F081 		pop	{r4, r5, r6, r7, r8, pc}
 3263              	.LVL342:
 3264              	.L225:
 931:Drivers/W25qxx/w25qxx.c **** 
 3265              		.loc 1 931 3 is_stmt 1 view .LVU800
 3266 00a0 200E     		lsrs	r0, r4, #24
 3267 00a2 FFF7FEFF 		bl	W25qxx_Spi
 3268              	.LVL343:
 3269 00a6 D8E7     		b	.L220
 3270              	.L227:
 3271              		.align	2
 3272              	.L226:
 3273 00a8 00000000 		.word	w25qxx
 3274 00ac 00000240 		.word	1073872896
 3275 00b0 00000000 		.word	hspi1
 3276              		.cfi_endproc
 3277              	.LFE261:
 3279              		.section	.text.W25qxx_ReadSector,"ax",%progbits
 3280              		.align	1
 3281              		.global	W25qxx_ReadSector
 3282              		.syntax unified
 3283              		.thumb
 3284              		.thumb_func
 3285              		.fpu fpv4-sp-d16
 3287              	W25qxx_ReadSector:
 3288              	.LVL344:
 3289              	.LFB262:
 958:Drivers/W25qxx/w25qxx.c **** 
 959:Drivers/W25qxx/w25qxx.c **** //#################################################################################################
 960:Drivers/W25qxx/w25qxx.c **** void W25qxx_ReadSector(uint8_t *pBuffer,uint32_t Sector_Address,uint32_t OffsetInByte,uint32_t NumB
 961:Drivers/W25qxx/w25qxx.c **** {	
 3290              		.loc 1 961 1 view -0
 3291              		.cfi_startproc
 3292              		@ args = 0, pretend = 0, frame = 0
 3293              		@ frame_needed = 0, uses_anonymous_args = 0
 3294              		.loc 1 961 1 is_stmt 0 view .LVU802
 3295 0000 F8B5     		push	{r3, r4, r5, r6, r7, lr}
 3296              	.LCFI29:
 3297              		.cfi_def_cfa_offset 24
 3298              		.cfi_offset 3, -24
 3299              		.cfi_offset 4, -20
 3300              		.cfi_offset 5, -16
ARM GAS  C:\Users\Andre\AppData\Local\Temp\cc6DUQzQ.s 			page 79


 3301              		.cfi_offset 6, -12
 3302              		.cfi_offset 7, -8
 3303              		.cfi_offset 14, -4
 3304 0002 0746     		mov	r7, r0
 3305 0004 0846     		mov	r0, r1
 3306              	.LVL345:
 3307              		.loc 1 961 1 view .LVU803
 3308 0006 1546     		mov	r5, r2
 3309 0008 1C46     		mov	r4, r3
 962:Drivers/W25qxx/w25qxx.c **** 	if((NumByteToRead_up_to_SectorSize>w25qxx.SectorSize) || (NumByteToRead_up_to_SectorSize==0))
 3310              		.loc 1 962 2 is_stmt 1 view .LVU804
 3311              		.loc 1 962 43 is_stmt 0 view .LVU805
 3312 000a 134B     		ldr	r3, .L236
 3313              	.LVL346:
 3314              		.loc 1 962 43 view .LVU806
 3315 000c 1B69     		ldr	r3, [r3, #16]
 3316              		.loc 1 962 4 view .LVU807
 3317 000e A342     		cmp	r3, r4
 3318 0010 02D3     		bcc	.L233
 3319              		.loc 1 962 56 discriminator 1 view .LVU808
 3320 0012 14B9     		cbnz	r4, .L229
 963:Drivers/W25qxx/w25qxx.c **** 		NumByteToRead_up_to_SectorSize=w25qxx.SectorSize;
 3321              		.loc 1 963 33 view .LVU809
 3322 0014 1C46     		mov	r4, r3
 3323              	.LVL347:
 3324              		.loc 1 963 33 view .LVU810
 3325 0016 00E0     		b	.L229
 3326              	.LVL348:
 3327              	.L233:
 3328              		.loc 1 963 33 view .LVU811
 3329 0018 1C46     		mov	r4, r3
 3330              	.LVL349:
 3331              	.L229:
 964:Drivers/W25qxx/w25qxx.c **** 
 965:Drivers/W25qxx/w25qxx.c **** 	uint32_t StartPage;
 3332              		.loc 1 965 2 is_stmt 1 view .LVU812
 966:Drivers/W25qxx/w25qxx.c **** 	int32_t	BytesToRead;
 3333              		.loc 1 966 2 view .LVU813
 967:Drivers/W25qxx/w25qxx.c **** 	uint32_t LocalOffset;
 3334              		.loc 1 967 2 view .LVU814
 968:Drivers/W25qxx/w25qxx.c **** 
 969:Drivers/W25qxx/w25qxx.c **** 	if((OffsetInByte + NumByteToRead_up_to_SectorSize) > w25qxx.SectorSize)
 3335              		.loc 1 969 2 view .LVU815
 3336              		.loc 1 969 19 is_stmt 0 view .LVU816
 3337 001a 6219     		adds	r2, r4, r5
 3338              	.LVL350:
 3339              		.loc 1 969 4 view .LVU817
 3340 001c 9342     		cmp	r3, r2
 3341 001e 00D2     		bcs	.L231
 970:Drivers/W25qxx/w25qxx.c **** 		BytesToRead = w25qxx.SectorSize - OffsetInByte;
 3342              		.loc 1 970 3 is_stmt 1 view .LVU818
 3343              		.loc 1 970 35 is_stmt 0 view .LVU819
 3344 0020 5C1B     		subs	r4, r3, r5
 3345              	.LVL351:
 3346              	.L231:
 971:Drivers/W25qxx/w25qxx.c **** 	else
 972:Drivers/W25qxx/w25qxx.c **** 		BytesToRead = NumByteToRead_up_to_SectorSize;	
ARM GAS  C:\Users\Andre\AppData\Local\Temp\cc6DUQzQ.s 			page 80


 973:Drivers/W25qxx/w25qxx.c **** 
 974:Drivers/W25qxx/w25qxx.c **** 	StartPage = W25qxx_SectorToPage(Sector_Address) + (OffsetInByte / w25qxx.PageSize);
 3347              		.loc 1 974 2 is_stmt 1 view .LVU820
 3348              		.loc 1 974 14 is_stmt 0 view .LVU821
 3349 0022 FFF7FEFF 		bl	W25qxx_SectorToPage
 3350              	.LVL352:
 3351              		.loc 1 974 74 view .LVU822
 3352 0026 0C4B     		ldr	r3, .L236
 3353 0028 5A89     		ldrh	r2, [r3, #10]
 3354              		.loc 1 974 66 view .LVU823
 3355 002a B5FBF2F3 		udiv	r3, r5, r2
 3356              		.loc 1 974 12 view .LVU824
 3357 002e C618     		adds	r6, r0, r3
 3358              	.LVL353:
 975:Drivers/W25qxx/w25qxx.c **** 
 976:Drivers/W25qxx/w25qxx.c **** 	LocalOffset = OffsetInByte % w25qxx.PageSize;
 3359              		.loc 1 976 2 is_stmt 1 view .LVU825
 3360              		.loc 1 976 14 is_stmt 0 view .LVU826
 3361 0030 02FB1355 		mls	r5, r2, r3, r5
 3362              	.LVL354:
 3363              	.L232:
 977:Drivers/W25qxx/w25qxx.c **** 
 978:Drivers/W25qxx/w25qxx.c **** 	do
 3364              		.loc 1 978 2 is_stmt 1 discriminator 1 view .LVU827
 979:Drivers/W25qxx/w25qxx.c **** 	{		
 980:Drivers/W25qxx/w25qxx.c **** 		W25qxx_ReadPage(pBuffer, StartPage, LocalOffset, BytesToRead);
 3365              		.loc 1 980 3 discriminator 1 view .LVU828
 3366 0034 2346     		mov	r3, r4
 3367 0036 2A46     		mov	r2, r5
 3368 0038 3146     		mov	r1, r6
 3369 003a 3846     		mov	r0, r7
 3370 003c FFF7FEFF 		bl	W25qxx_ReadPage
 3371              	.LVL355:
 981:Drivers/W25qxx/w25qxx.c **** 		StartPage++;
 3372              		.loc 1 981 3 discriminator 1 view .LVU829
 3373              		.loc 1 981 12 is_stmt 0 discriminator 1 view .LVU830
 3374 0040 0136     		adds	r6, r6, #1
 3375              	.LVL356:
 982:Drivers/W25qxx/w25qxx.c **** 		BytesToRead -= w25qxx.PageSize-LocalOffset;
 3376              		.loc 1 982 3 is_stmt 1 discriminator 1 view .LVU831
 3377              		.loc 1 982 24 is_stmt 0 discriminator 1 view .LVU832
 3378 0042 054B     		ldr	r3, .L236
 3379 0044 5B89     		ldrh	r3, [r3, #10]
 3380              		.loc 1 982 15 discriminator 1 view .LVU833
 3381 0046 EA1A     		subs	r2, r5, r3
 3382 0048 1444     		add	r4, r4, r2
 3383              	.LVL357:
 983:Drivers/W25qxx/w25qxx.c **** 		//pBuffer+=w25qxx.PageSize;
 984:Drivers/W25qxx/w25qxx.c **** 		pBuffer += w25qxx.PageSize - LocalOffset;
 3384              		.loc 1 984 3 is_stmt 1 discriminator 1 view .LVU834
 3385              		.loc 1 984 30 is_stmt 0 discriminator 1 view .LVU835
 3386 004a 5B1B     		subs	r3, r3, r5
 3387              		.loc 1 984 11 discriminator 1 view .LVU836
 3388 004c 1F44     		add	r7, r7, r3
 3389              	.LVL358:
 985:Drivers/W25qxx/w25qxx.c **** 		LocalOffset = 0;
 3390              		.loc 1 985 3 is_stmt 1 discriminator 1 view .LVU837
ARM GAS  C:\Users\Andre\AppData\Local\Temp\cc6DUQzQ.s 			page 81


 986:Drivers/W25qxx/w25qxx.c **** 	}
 987:Drivers/W25qxx/w25qxx.c **** 	while(BytesToRead > 0);
 3391              		.loc 1 987 7 discriminator 1 view .LVU838
 985:Drivers/W25qxx/w25qxx.c **** 		LocalOffset = 0;
 3392              		.loc 1 985 15 is_stmt 0 discriminator 1 view .LVU839
 3393 004e 0025     		movs	r5, #0
 3394              		.loc 1 987 2 discriminator 1 view .LVU840
 3395 0050 AC42     		cmp	r4, r5
 3396 0052 EFDC     		bgt	.L232
 988:Drivers/W25qxx/w25qxx.c **** }
 3397              		.loc 1 988 1 view .LVU841
 3398 0054 F8BD     		pop	{r3, r4, r5, r6, r7, pc}
 3399              	.LVL359:
 3400              	.L237:
 3401              		.loc 1 988 1 view .LVU842
 3402 0056 00BF     		.align	2
 3403              	.L236:
 3404 0058 00000000 		.word	w25qxx
 3405              		.cfi_endproc
 3406              	.LFE262:
 3408              		.section	.text.W25qxx_ReadBlock,"ax",%progbits
 3409              		.align	1
 3410              		.global	W25qxx_ReadBlock
 3411              		.syntax unified
 3412              		.thumb
 3413              		.thumb_func
 3414              		.fpu fpv4-sp-d16
 3416              	W25qxx_ReadBlock:
 3417              	.LVL360:
 3418              	.LFB263:
 989:Drivers/W25qxx/w25qxx.c **** 
 990:Drivers/W25qxx/w25qxx.c **** //#################################################################################################
 991:Drivers/W25qxx/w25qxx.c **** void W25qxx_ReadBlock(uint8_t *pBuffer, uint32_t Block_Address, uint32_t OffsetInByte, uint32_t	Num
 992:Drivers/W25qxx/w25qxx.c **** {
 3419              		.loc 1 992 1 is_stmt 1 view -0
 3420              		.cfi_startproc
 3421              		@ args = 0, pretend = 0, frame = 0
 3422              		@ frame_needed = 0, uses_anonymous_args = 0
 3423              		.loc 1 992 1 is_stmt 0 view .LVU844
 3424 0000 F8B5     		push	{r3, r4, r5, r6, r7, lr}
 3425              	.LCFI30:
 3426              		.cfi_def_cfa_offset 24
 3427              		.cfi_offset 3, -24
 3428              		.cfi_offset 4, -20
 3429              		.cfi_offset 5, -16
 3430              		.cfi_offset 6, -12
 3431              		.cfi_offset 7, -8
 3432              		.cfi_offset 14, -4
 3433 0002 0746     		mov	r7, r0
 3434 0004 0846     		mov	r0, r1
 3435              	.LVL361:
 3436              		.loc 1 992 1 view .LVU845
 3437 0006 1546     		mov	r5, r2
 3438 0008 1C46     		mov	r4, r3
 993:Drivers/W25qxx/w25qxx.c **** 	if((NumByteToRead_up_to_BlockSize > w25qxx.BlockSize) || (NumByteToRead_up_to_BlockSize == 0))
 3439              		.loc 1 993 2 is_stmt 1 view .LVU846
 3440              		.loc 1 993 44 is_stmt 0 view .LVU847
ARM GAS  C:\Users\Andre\AppData\Local\Temp\cc6DUQzQ.s 			page 82


 3441 000a 134B     		ldr	r3, .L246
 3442              	.LVL362:
 3443              		.loc 1 993 44 view .LVU848
 3444 000c 9B69     		ldr	r3, [r3, #24]
 3445              		.loc 1 993 4 view .LVU849
 3446 000e A342     		cmp	r3, r4
 3447 0010 02D3     		bcc	.L243
 3448              		.loc 1 993 56 discriminator 1 view .LVU850
 3449 0012 14B9     		cbnz	r4, .L239
 994:Drivers/W25qxx/w25qxx.c **** 		NumByteToRead_up_to_BlockSize = w25qxx.BlockSize;
 3450              		.loc 1 994 33 view .LVU851
 3451 0014 1C46     		mov	r4, r3
 3452              	.LVL363:
 3453              		.loc 1 994 33 view .LVU852
 3454 0016 00E0     		b	.L239
 3455              	.LVL364:
 3456              	.L243:
 3457              		.loc 1 994 33 view .LVU853
 3458 0018 1C46     		mov	r4, r3
 3459              	.LVL365:
 3460              	.L239:
 995:Drivers/W25qxx/w25qxx.c **** 
 996:Drivers/W25qxx/w25qxx.c **** 	uint32_t StartPage;
 3461              		.loc 1 996 2 is_stmt 1 view .LVU854
 997:Drivers/W25qxx/w25qxx.c **** 	int32_t	BytesToRead;
 3462              		.loc 1 997 2 view .LVU855
 998:Drivers/W25qxx/w25qxx.c **** 	uint32_t LocalOffset;
 3463              		.loc 1 998 2 view .LVU856
 999:Drivers/W25qxx/w25qxx.c **** 
1000:Drivers/W25qxx/w25qxx.c **** 	if((OffsetInByte+NumByteToRead_up_to_BlockSize) > w25qxx.BlockSize)
 3464              		.loc 1 1000 2 view .LVU857
 3465              		.loc 1 1000 18 is_stmt 0 view .LVU858
 3466 001a 6219     		adds	r2, r4, r5
 3467              	.LVL366:
 3468              		.loc 1 1000 4 view .LVU859
 3469 001c 9342     		cmp	r3, r2
 3470 001e 00D2     		bcs	.L241
1001:Drivers/W25qxx/w25qxx.c **** 		BytesToRead = w25qxx.BlockSize-OffsetInByte;
 3471              		.loc 1 1001 3 is_stmt 1 view .LVU860
 3472              		.loc 1 1001 33 is_stmt 0 view .LVU861
 3473 0020 5C1B     		subs	r4, r3, r5
 3474              	.LVL367:
 3475              	.L241:
1002:Drivers/W25qxx/w25qxx.c **** 	else
1003:Drivers/W25qxx/w25qxx.c **** 		BytesToRead = NumByteToRead_up_to_BlockSize;
1004:Drivers/W25qxx/w25qxx.c **** 
1005:Drivers/W25qxx/w25qxx.c **** 	StartPage = W25qxx_BlockToPage(Block_Address) + (OffsetInByte / w25qxx.PageSize);
 3476              		.loc 1 1005 2 is_stmt 1 view .LVU862
 3477              		.loc 1 1005 14 is_stmt 0 view .LVU863
 3478 0022 FFF7FEFF 		bl	W25qxx_BlockToPage
 3479              	.LVL368:
 3480              		.loc 1 1005 72 view .LVU864
 3481 0026 0C4B     		ldr	r3, .L246
 3482 0028 5A89     		ldrh	r2, [r3, #10]
 3483              		.loc 1 1005 64 view .LVU865
 3484 002a B5FBF2F3 		udiv	r3, r5, r2
 3485              		.loc 1 1005 12 view .LVU866
ARM GAS  C:\Users\Andre\AppData\Local\Temp\cc6DUQzQ.s 			page 83


 3486 002e C618     		adds	r6, r0, r3
 3487              	.LVL369:
1006:Drivers/W25qxx/w25qxx.c **** 
1007:Drivers/W25qxx/w25qxx.c **** 	LocalOffset = OffsetInByte%w25qxx.PageSize;	
 3488              		.loc 1 1007 2 is_stmt 1 view .LVU867
 3489              		.loc 1 1007 14 is_stmt 0 view .LVU868
 3490 0030 02FB1355 		mls	r5, r2, r3, r5
 3491              	.LVL370:
 3492              	.L242:
1008:Drivers/W25qxx/w25qxx.c **** 
1009:Drivers/W25qxx/w25qxx.c **** 	do
 3493              		.loc 1 1009 2 is_stmt 1 discriminator 1 view .LVU869
1010:Drivers/W25qxx/w25qxx.c **** 	{		
1011:Drivers/W25qxx/w25qxx.c **** 		W25qxx_ReadPage(pBuffer,StartPage,LocalOffset,BytesToRead);
 3494              		.loc 1 1011 3 discriminator 1 view .LVU870
 3495 0034 2346     		mov	r3, r4
 3496 0036 2A46     		mov	r2, r5
 3497 0038 3146     		mov	r1, r6
 3498 003a 3846     		mov	r0, r7
 3499 003c FFF7FEFF 		bl	W25qxx_ReadPage
 3500              	.LVL371:
1012:Drivers/W25qxx/w25qxx.c **** 		StartPage++;
 3501              		.loc 1 1012 3 discriminator 1 view .LVU871
 3502              		.loc 1 1012 12 is_stmt 0 discriminator 1 view .LVU872
 3503 0040 0136     		adds	r6, r6, #1
 3504              	.LVL372:
1013:Drivers/W25qxx/w25qxx.c **** 		BytesToRead-=w25qxx.PageSize-LocalOffset;
 3505              		.loc 1 1013 3 is_stmt 1 discriminator 1 view .LVU873
 3506              		.loc 1 1013 22 is_stmt 0 discriminator 1 view .LVU874
 3507 0042 054B     		ldr	r3, .L246
 3508 0044 5B89     		ldrh	r3, [r3, #10]
 3509              		.loc 1 1013 14 discriminator 1 view .LVU875
 3510 0046 EA1A     		subs	r2, r5, r3
 3511 0048 1444     		add	r4, r4, r2
 3512              	.LVL373:
1014:Drivers/W25qxx/w25qxx.c **** 		//pBuffer+=w25qxx.PageSize;
1015:Drivers/W25qxx/w25qxx.c **** 		pBuffer += w25qxx.PageSize - LocalOffset;
 3513              		.loc 1 1015 3 is_stmt 1 discriminator 1 view .LVU876
 3514              		.loc 1 1015 30 is_stmt 0 discriminator 1 view .LVU877
 3515 004a 5B1B     		subs	r3, r3, r5
 3516              		.loc 1 1015 11 discriminator 1 view .LVU878
 3517 004c 1F44     		add	r7, r7, r3
 3518              	.LVL374:
1016:Drivers/W25qxx/w25qxx.c **** 		LocalOffset=0;
 3519              		.loc 1 1016 3 is_stmt 1 discriminator 1 view .LVU879
1017:Drivers/W25qxx/w25qxx.c **** 	}
1018:Drivers/W25qxx/w25qxx.c **** 	while(BytesToRead > 0);
 3520              		.loc 1 1018 7 discriminator 1 view .LVU880
1016:Drivers/W25qxx/w25qxx.c **** 		LocalOffset=0;
 3521              		.loc 1 1016 14 is_stmt 0 discriminator 1 view .LVU881
 3522 004e 0025     		movs	r5, #0
 3523              		.loc 1 1018 2 discriminator 1 view .LVU882
 3524 0050 AC42     		cmp	r4, r5
 3525 0052 EFDC     		bgt	.L242
1019:Drivers/W25qxx/w25qxx.c **** }
 3526              		.loc 1 1019 1 view .LVU883
 3527 0054 F8BD     		pop	{r3, r4, r5, r6, r7, pc}
ARM GAS  C:\Users\Andre\AppData\Local\Temp\cc6DUQzQ.s 			page 84


 3528              	.LVL375:
 3529              	.L247:
 3530              		.loc 1 1019 1 view .LVU884
 3531 0056 00BF     		.align	2
 3532              	.L246:
 3533 0058 00000000 		.word	w25qxx
 3534              		.cfi_endproc
 3535              	.LFE263:
 3537              		.comm	w25qxx,40,4
 3538              		.global	buf
 3539              		.section	.bss.buf,"aw",%nobits
 3540              		.align	2
 3541              		.set	.LANCHOR0,. + 0
 3544              	buf:
 3545 0000 00000000 		.space	64
 3545      00000000 
 3545      00000000 
 3545      00000000 
 3545      00000000 
 3546              		.text
 3547              	.Letext0:
 3548              		.file 2 "c:\\vscodeproject\\software\\arm_gcc\\arm-none-eabi\\include\\machine\\_default_types.h"
 3549              		.file 3 "c:\\vscodeproject\\software\\arm_gcc\\arm-none-eabi\\include\\sys\\_stdint.h"
 3550              		.file 4 "Drivers/CMSIS/Include/core_cm4.h"
 3551              		.file 5 "Drivers/CMSIS/Device/ST/STM32F4xx/Include/system_stm32f4xx.h"
 3552              		.file 6 "Drivers/CMSIS/Device/ST/STM32F4xx/Include/stm32f407xx.h"
 3553              		.file 7 "Drivers/STM32F4xx_HAL_Driver/Inc/stm32f4xx_hal_def.h"
 3554              		.file 8 "Drivers/STM32F4xx_HAL_Driver/Inc/stm32f4xx_hal_gpio.h"
 3555              		.file 9 "Drivers/STM32F4xx_HAL_Driver/Inc/stm32f4xx_hal_dma.h"
 3556              		.file 10 "Drivers/STM32F4xx_HAL_Driver/Inc/stm32f4xx_hal_spi.h"
 3557              		.file 11 "Drivers/STM32F4xx_HAL_Driver/Inc/stm32f4xx_hal_uart.h"
 3558              		.file 12 "Drivers/STM32F4xx_HAL_Driver/Inc/stm32f4xx_hal.h"
 3559              		.file 13 "Drivers/W25qxx/w25qxx.h"
 3560              		.file 14 "c:\\vscodeproject\\software\\arm_gcc\\arm-none-eabi\\include\\sys\\lock.h"
 3561              		.file 15 "c:\\vscodeproject\\software\\arm_gcc\\arm-none-eabi\\include\\sys\\_types.h"
 3562              		.file 16 "c:\\vscodeproject\\software\\arm_gcc\\lib\\gcc\\arm-none-eabi\\9.2.1\\include\\stddef.h"
 3563              		.file 17 "c:\\vscodeproject\\software\\arm_gcc\\arm-none-eabi\\include\\sys\\reent.h"
 3564              		.file 18 "c:\\vscodeproject\\software\\arm_gcc\\arm-none-eabi\\include\\stdio.h"
 3565              		.file 19 "c:\\vscodeproject\\software\\arm_gcc\\arm-none-eabi\\include\\string.h"
 3566              		.file 20 "<built-in>"
ARM GAS  C:\Users\Andre\AppData\Local\Temp\cc6DUQzQ.s 			page 85

